(lp0
(lp1
S'63.251.0.0/20'
p2
aS'63.251.160.0/20'
p3
aS'63.251.172.0/24'
p4
aS'64.74.0.0/19'
p5
aS'64.94.112.0/20'
p6
aS'64.94.125.0/24'
p7
aS'64.94.128.0/20'
p8
aS'64.94.143.192/26'
p9
aS'64.94.158.0/24'
p10
aS'64.95.160.0/19'
p11
aS'66.150.0.0/20'
p12
aS'66.150.160.0/20'
p13
aS'66.150.160.0/25'
p14
aS'66.150.174.0/24'
p15
aS'69.25.128.0/20'
p16
aS'69.25.136.0/23'
p17
aS'69.25.139.0/24'
p18
aS'69.25.143.0/24'
p19
aS'70.42.160.0/20'
p20
aS'70.42.161.0/24'
p21
aS'70.42.168.0/24'
p22
aS'72.5.48.0/20'
p23
aS'72.5.48.0/24'
p24
aS'72.5.60.0/24'
p25
aS'72.5.208.0/20'
p26
aS'75.98.32.0/23'
p27
aS'198.72.80.0/24'
p28
aS'198.72.81.0/24'
p29
aS'198.72.82.0/24'
p30
aS'198.134.79.0/24'
p31
aS'198.134.80.0/24'
p32
aS'198.134.81.0/24'
p33
aS'198.134.83.0/24'
p34
aS'198.134.96.0/24'
p35
aS'206.191.128.0/18'
p36
aS'206.191.144.0/21'
p37
aS'206.191.160.0/20'
p38
aS'206.191.176.0/21'
p39
aS'206.253.192.0/19'
p40
aS'206.253.192.0/21'
p41
aS'206.253.208.0/20'
p42
aS'208.146.32.0/20'
p43
aS'209.191.160.0/19'
p44
aS'209.191.185.0/24'
p45
aS'209.191.186.0/24'
p46
aS'209.191.187.0/24'
p47
aS'209.191.188.0/24'
p48
aS'209.191.189.0/24'
p49
aS'209.191.190.0/24'
p50
aS'209.191.191.0/24'
p51
aS'216.52.158.0/24'
p52
aS'216.223.0.0/19'
p53
aS'216.223.20.0/22'
p54
aS'216.223.20.0/24'
p55
aS'216.223.21.0/24'
p56
aS'216.223.22.0/24'
p57
aS'216.223.23.0/24'
p58
aa.(lp0
(lp1
S'5.83.240.0/20'
p2
aS'5.149.252.0/23'
p3
aS'23.251.224.0/19'
p4
aS'24.104.32.0/21'
p5
aS'24.204.160.0/19'
p6
aS'24.238.0.0/24'
p7
aS'24.238.2.0/24'
p8
aS'24.238.12.0/22'
p9
aS'24.238.98.0/23'
p10
aS'24.238.100.0/22'
p11
aS'24.238.104.0/22'
p12
aS'24.238.110.0/23'
p13
aS'24.238.112.0/22'
p14
aS'31.211.184.0/21'
p15
aS'37.143.120.0/21'
p16
aS'37.157.32.0/21'
p17
aS'37.208.80.0/21'
p18
aS'37.235.36.0/22'
p19
aS'37.235.40.0/21'
p20
aS'37.247.120.0/22'
p21
aS'37.247.124.0/22'
p22
aS'38.0.0.0/8'
p23
aS'38.2.119.0/24'
p24
aS'38.2.195.0/24'
p25
aS'38.2.201.0/24'
p26
aS'38.2.204.0/24'
p27
aS'38.5.49.0/24'
p28
aS'38.8.6.0/24'
p29
aS'38.8.48.0/24'
p30
aS'38.9.9.0/24'
p31
aS'38.9.51.0/24'
p32
aS'38.9.79.0/24'
p33
aS'38.9.120.0/24'
p34
aS'38.21.6.0/24'
p35
aS'38.21.13.0/24'
p36
aS'38.21.22.0/24'
p37
aS'38.21.37.0/24'
p38
aS'38.22.7.0/24'
p39
aS'38.22.8.0/24'
p40
aS'38.22.39.0/24'
p41
aS'38.22.53.0/24'
p42
aS'38.22.102.0/24'
p43
aS'38.24.3.0/24'
p44
aS'38.24.25.0/24'
p45
aS'38.25.3.0/24'
p46
aS'38.25.24.0/24'
p47
aS'38.25.37.0/24'
p48
aS'38.64.32.0/22'
p49
aS'38.64.37.0/24'
p50
aS'38.64.38.0/24'
p51
aS'38.64.49.0/24'
p52
aS'38.64.50.0/24'
p53
aS'38.64.67.0/24'
p54
aS'38.64.73.0/24'
p55
aS'38.64.74.0/24'
p56
aS'38.64.75.0/24'
p57
aS'38.64.76.0/22'
p58
aS'38.64.83.0/24'
p59
aS'38.64.132.0/23'
p60
aS'38.64.136.0/23'
p61
aS'38.64.138.0/24'
p62
aS'38.64.139.0/24'
p63
aS'38.64.152.0/24'
p64
aS'38.64.154.0/24'
p65
aS'38.64.162.0/24'
p66
aS'38.64.163.0/24'
p67
aS'38.64.164.0/24'
p68
aS'38.64.165.0/24'
p69
aS'38.64.167.0/24'
p70
aS'38.64.168.0/24'
p71
aS'38.64.169.0/24'
p72
aS'38.64.171.0/24'
p73
aS'38.65.2.0/24'
p74
aS'38.65.4.0/23'
p75
aS'38.65.6.0/24'
p76
aS'38.65.7.0/24'
p77
aS'38.65.9.0/24'
p78
aS'38.65.14.0/24'
p79
aS'38.65.16.0/24'
p80
aS'38.65.17.0/24'
p81
aS'38.65.33.0/24'
p82
aS'38.65.34.0/24'
p83
aS'38.65.35.0/24'
p84
aS'38.65.48.0/24'
p85
aS'38.65.52.0/22'
p86
aS'38.65.68.0/24'
p87
aS'38.65.101.0/24'
p88
aS'38.65.103.0/24'
p89
aS'38.65.110.0/23'
p90
aS'38.65.129.0/24'
p91
aS'38.65.132.0/24'
p92
aS'38.65.133.0/24'
p93
aS'38.65.134.0/24'
p94
aS'38.65.136.0/23'
p95
aS'38.66.68.0/23'
p96
aS'38.66.72.0/24'
p97
aS'38.66.73.0/24'
p98
aS'38.66.74.0/24'
p99
aS'38.66.197.0/24'
p100
aS'38.67.0.0/24'
p101
aS'38.67.2.0/24'
p102
aS'38.67.8.0/23'
p103
aS'38.67.10.0/23'
p104
aS'38.67.12.0/22'
p105
aS'38.67.16.0/23'
p106
aS'38.67.195.0/24'
p107
aS'38.68.0.0/23'
p108
aS'38.68.2.0/24'
p109
aS'38.68.65.0/24'
p110
aS'38.68.66.0/24'
p111
aS'38.68.136.0/21'
p112
aS'38.68.195.0/24'
p113
aS'38.69.0.0/23'
p114
aS'38.69.2.0/24'
p115
aS'38.69.8.0/21'
p116
aS'38.69.16.0/20'
p117
aS'38.69.34.0/23'
p118
aS'38.69.36.0/23'
p119
aS'38.69.40.0/23'
p120
aS'38.69.44.0/24'
p121
aS'38.69.48.0/22'
p122
aS'38.69.56.0/24'
p123
aS'38.69.57.0/24'
p124
aS'38.69.58.0/23'
p125
aS'38.69.60.0/22'
p126
aS'38.69.132.0/23'
p127
aS'38.69.144.0/21'
p128
aS'38.69.156.0/23'
p129
aS'38.69.160.0/21'
p130
aS'38.69.192.0/23'
p131
aS'38.69.194.0/24'
p132
aS'38.69.196.0/22'
p133
aS'38.70.1.0/24'
p134
aS'38.70.2.0/23'
p135
aS'38.70.9.0/24'
p136
aS'38.70.12.0/24'
p137
aS'38.70.13.0/24'
p138
aS'38.70.14.0/24'
p139
aS'38.70.19.0/24'
p140
aS'38.71.1.0/24'
p141
aS'38.71.3.0/24'
p142
aS'38.71.5.0/24'
p143
aS'38.71.65.0/24'
p144
aS'38.71.66.0/23'
p145
aS'38.71.68.0/24'
p146
aS'38.71.194.0/24'
p147
aS'38.72.68.0/24'
p148
aS'38.72.77.0/24'
p149
aS'38.72.97.0/24'
p150
aS'38.72.98.0/23'
p151
aS'38.72.98.0/24'
p152
aS'38.72.100.0/24'
p153
aS'38.72.129.0/24'
p154
aS'38.72.192.0/24'
p155
aS'38.72.194.0/24'
p156
aS'38.72.195.0/24'
p157
aS'38.72.198.0/24'
p158
aS'38.72.199.0/24'
p159
aS'38.72.204.0/24'
p160
aS'38.72.205.0/24'
p161
aS'38.72.206.0/24'
p162
aS'38.73.2.0/24'
p163
aS'38.73.96.0/24'
p164
aS'38.73.129.0/24'
p165
aS'38.73.132.0/23'
p166
aS'38.73.140.0/23'
p167
aS'38.73.142.0/23'
p168
aS'38.73.144.0/21'
p169
aS'38.73.152.0/23'
p170
aS'38.73.156.0/22'
p171
aS'38.74.1.0/24'
p172
aS'38.74.16.0/20'
p173
aS'38.74.132.0/22'
p174
aS'38.74.138.0/24'
p175
aS'38.74.139.0/24'
p176
aS'38.74.140.0/23'
p177
aS'38.74.144.0/24'
p178
aS'38.74.145.0/24'
p179
aS'38.75.2.0/24'
p180
aS'38.75.4.0/23'
p181
aS'38.75.13.0/24'
p182
aS'38.75.15.0/24'
p183
aS'38.75.21.0/24'
p184
aS'38.75.22.0/24'
p185
aS'38.75.25.0/24'
p186
aS'38.75.29.0/24'
p187
aS'38.75.32.0/22'
p188
aS'38.75.130.0/24'
p189
aS'38.75.134.0/23'
p190
aS'38.75.196.0/23'
p191
aS'38.76.66.0/24'
p192
aS'38.76.73.0/24'
p193
aS'38.76.129.0/24'
p194
aS'38.77.16.0/21'
p195
aS'38.77.128.0/23'
p196
aS'38.77.200.0/23'
p197
aS'38.78.72.0/21'
p198
aS'38.78.130.0/24'
p199
aS'38.78.131.0/24'
p200
aS'38.78.208.0/20'
p201
aS'38.79.3.0/24'
p202
aS'38.79.65.0/24'
p203
aS'38.79.66.0/24'
p204
aS'38.79.68.0/23'
p205
aS'38.80.0.0/24'
p206
aS'38.80.3.0/24'
p207
aS'38.80.4.0/23'
p208
aS'38.80.64.0/23'
p209
aS'38.80.67.0/24'
p210
aS'38.80.68.0/23'
p211
aS'38.80.74.0/24'
p212
aS'38.80.75.0/24'
p213
aS'38.80.84.0/22'
p214
aS'38.80.128.0/21'
p215
aS'38.80.136.0/22'
p216
aS'38.80.144.0/20'
p217
aS'38.80.164.0/24'
p218
aS'38.80.200.0/21'
p219
aS'38.81.33.0/24'
p220
aS'38.81.64.0/24'
p221
aS'38.81.66.0/23'
p222
aS'38.81.129.0/24'
p223
aS'38.81.130.0/23'
p224
aS'38.81.197.0/24'
p225
aS'38.81.198.0/24'
p226
aS'38.82.192.0/23'
p227
aS'38.82.196.0/22'
p228
aS'38.82.200.0/22'
p229
aS'38.82.204.0/23'
p230
aS'38.82.206.0/23'
p231
aS'38.82.216.0/23'
p232
aS'38.82.218.0/23'
p233
aS'38.82.221.0/24'
p234
aS'38.82.223.0/24'
p235
aS'38.82.227.0/24'
p236
aS'38.83.74.0/24'
p237
aS'38.83.101.0/24'
p238
aS'38.83.136.0/21'
p239
aS'38.83.193.0/24'
p240
aS'38.83.194.0/24'
p241
aS'38.84.35.0/24'
p242
aS'38.84.38.0/24'
p243
aS'38.84.65.0/24'
p244
aS'38.84.70.0/24'
p245
aS'38.84.129.0/24'
p246
aS'38.84.130.0/23'
p247
aS'38.84.134.0/24'
p248
aS'38.84.135.0/24'
p249
aS'38.84.136.0/24'
p250
aS'38.84.162.0/24'
p251
aS'38.84.224.0/24'
p252
aS'38.85.0.0/17'
p253
aS'38.85.16.0/24'
p254
aS'38.86.0.0/24'
p255
aS'38.86.36.0/22'
p256
aS'38.86.64.0/22'
p257
aS'38.86.74.0/23'
p258
aS'38.86.96.0/23'
p259
aS'38.86.133.0/24'
p260
aS'38.86.140.0/23'
p261
aS'38.86.174.0/23'
p262
aS'38.86.225.0/24'
p263
aS'38.87.34.0/24'
p264
aS'38.87.40.0/23'
p265
aS'38.87.82.0/24'
p266
aS'38.87.83.0/24'
p267
aS'38.88.24.0/21'
p268
aS'38.88.65.0/24'
p269
aS'38.88.66.0/24'
p270
aS'38.89.0.0/22'
p271
aS'38.89.8.0/22'
p272
aS'38.89.32.0/23'
p273
aS'38.89.98.0/24'
p274
aS'38.89.100.0/23'
p275
aS'38.89.129.0/24'
p276
aS'38.89.130.0/24'
p277
aS'38.89.160.0/24'
p278
aS'38.89.161.0/24'
p279
aS'38.89.163.0/24'
p280
aS'38.89.193.0/24'
p281
aS'38.89.226.0/24'
p282
aS'38.89.227.0/24'
p283
aS'38.89.235.0/24'
p284
aS'38.89.236.0/24'
p285
aS'38.90.33.0/24'
p286
aS'38.90.65.0/24'
p287
aS'38.90.96.0/24'
p288
aS'38.90.132.0/22'
p289
aS'38.90.136.0/24'
p290
aS'38.90.137.0/24'
p291
aS'38.90.138.0/24'
p292
aS'38.90.139.0/24'
p293
aS'38.90.192.0/23'
p294
aS'38.91.64.0/24'
p295
aS'38.91.66.0/23'
p296
aS'38.91.102.0/23'
p297
aS'38.91.104.0/23'
p298
aS'38.91.112.0/20'
p299
aS'38.91.129.0/24'
p300
aS'38.91.194.0/24'
p301
aS'38.92.97.0/24'
p302
aS'38.92.112.0/21'
p303
aS'38.92.134.0/24'
p304
aS'38.92.136.0/24'
p305
aS'38.92.138.0/24'
p306
aS'38.93.97.0/24'
p307
aS'38.93.128.0/24'
p308
aS'38.93.132.0/22'
p309
aS'38.93.193.0/24'
p310
aS'38.93.228.0/24'
p311
aS'38.93.229.0/24'
p312
aS'38.93.230.0/23'
p313
aS'38.93.232.0/24'
p314
aS'38.94.1.0/24'
p315
aS'38.94.36.0/22'
p316
aS'38.94.137.0/24'
p317
aS'38.94.144.0/22'
p318
aS'38.94.149.0/24'
p319
aS'38.95.32.0/23'
p320
aS'38.95.65.0/24'
p321
aS'38.95.225.0/24'
p322
aS'38.95.227.0/24'
p323
aS'38.95.229.0/24'
p324
aS'38.95.230.0/24'
p325
aS'38.95.231.0/24'
p326
aS'38.95.232.0/24'
p327
aS'38.95.233.0/24'
p328
aS'38.95.234.0/24'
p329
aS'38.95.235.0/24'
p330
aS'38.96.0.0/24'
p331
aS'38.96.1.0/24'
p332
aS'38.96.9.0/24'
p333
aS'38.96.11.0/24'
p334
aS'38.96.12.0/24'
p335
aS'38.96.16.0/23'
p336
aS'38.96.18.0/24'
p337
aS'38.96.22.0/24'
p338
aS'38.96.24.0/23'
p339
aS'38.96.26.0/23'
p340
aS'38.96.28.0/22'
p341
aS'38.96.32.0/20'
p342
aS'38.96.136.0/22'
p343
aS'38.96.144.0/24'
p344
aS'38.96.146.0/24'
p345
aS'38.96.147.0/24'
p346
aS'38.96.150.0/24'
p347
aS'38.96.156.0/22'
p348
aS'38.96.162.0/24'
p349
aS'38.96.166.0/24'
p350
aS'38.96.179.0/24'
p351
aS'38.96.189.0/24'
p352
aS'38.96.194.0/24'
p353
aS'38.96.198.0/23'
p354
aS'38.96.205.0/24'
p355
aS'38.96.206.0/23'
p356
aS'38.96.208.0/24'
p357
aS'38.96.214.0/23'
p358
aS'38.96.232.0/21'
p359
aS'38.96.240.0/24'
p360
aS'38.96.248.0/21'
p361
aS'38.97.6.0/23'
p362
aS'38.97.8.0/21'
p363
aS'38.97.24.0/22'
p364
aS'38.97.73.0/24'
p365
aS'38.97.77.0/24'
p366
aS'38.97.85.0/24'
p367
aS'38.97.101.0/24'
p368
aS'38.97.108.0/24'
p369
aS'38.97.115.0/24'
p370
aS'38.97.117.0/24'
p371
aS'38.97.125.0/24'
p372
aS'38.97.195.0/24'
p373
aS'38.97.228.0/22'
p374
aS'38.97.236.0/24'
p375
aS'38.98.8.0/24'
p376
aS'38.98.12.0/24'
p377
aS'38.98.13.0/24'
p378
aS'38.98.15.0/24'
p379
aS'38.98.16.0/24'
p380
aS'38.98.17.0/24'
p381
aS'38.98.22.0/24'
p382
aS'38.98.24.0/24'
p383
aS'38.98.25.0/24'
p384
aS'38.98.26.0/24'
p385
aS'38.98.27.0/24'
p386
aS'38.98.28.0/24'
p387
aS'38.98.29.0/24'
p388
aS'38.98.30.0/24'
p389
aS'38.98.31.0/24'
p390
aS'38.98.32.0/24'
p391
aS'38.98.33.0/24'
p392
aS'38.98.39.0/24'
p393
aS'38.98.40.0/24'
p394
aS'38.98.45.0/24'
p395
aS'38.98.46.0/23'
p396
aS'38.98.57.0/24'
p397
aS'38.98.59.0/24'
p398
aS'38.98.65.0/24'
p399
aS'38.98.93.0/24'
p400
aS'38.98.98.0/24'
p401
aS'38.98.114.0/24'
p402
aS'38.98.116.0/24'
p403
aS'38.98.124.0/24'
p404
aS'38.98.126.0/24'
p405
aS'38.98.146.0/24'
p406
aS'38.98.158.0/23'
p407
aS'38.98.164.0/23'
p408
aS'38.98.168.0/22'
p409
aS'38.98.174.0/24'
p410
aS'38.98.178.0/24'
p411
aS'38.98.181.0/24'
p412
aS'38.98.187.0/24'
p413
aS'38.98.188.0/22'
p414
aS'38.98.198.0/23'
p415
aS'38.98.200.0/22'
p416
aS'38.98.206.0/23'
p417
aS'38.98.216.0/24'
p418
aS'38.98.222.0/24'
p419
aS'38.98.241.0/24'
p420
aS'38.98.250.0/24'
p421
aS'38.99.0.0/24'
p422
aS'38.99.11.0/24'
p423
aS'38.99.19.0/24'
p424
aS'38.99.20.0/24'
p425
aS'38.99.28.0/24'
p426
aS'38.99.36.0/24'
p427
aS'38.99.41.0/24'
p428
aS'38.99.55.0/24'
p429
aS'38.99.57.0/24'
p430
aS'38.99.61.0/24'
p431
aS'38.99.82.0/24'
p432
aS'38.99.83.0/24'
p433
aS'38.99.88.0/22'
p434
aS'38.99.103.0/24'
p435
aS'38.99.106.0/24'
p436
aS'38.99.112.0/24'
p437
aS'38.99.113.0/24'
p438
aS'38.99.120.0/22'
p439
aS'38.99.124.0/24'
p440
aS'38.99.125.0/24'
p441
aS'38.99.135.0/24'
p442
aS'38.99.139.0/24'
p443
aS'38.99.154.0/24'
p444
aS'38.99.164.0/24'
p445
aS'38.99.168.0/22'
p446
aS'38.99.174.0/24'
p447
aS'38.99.178.0/24'
p448
aS'38.99.180.0/22'
p449
aS'38.99.188.0/24'
p450
aS'38.99.190.0/24'
p451
aS'38.99.225.0/24'
p452
aS'38.99.232.0/22'
p453
aS'38.99.237.0/24'
p454
aS'38.99.240.0/24'
p455
aS'38.99.245.0/24'
p456
aS'38.99.247.0/24'
p457
aS'38.99.252.0/22'
p458
aS'38.100.4.0/23'
p459
aS'38.100.9.0/24'
p460
aS'38.100.10.0/24'
p461
aS'38.100.12.0/24'
p462
aS'38.100.23.0/24'
p463
aS'38.100.30.0/24'
p464
aS'38.100.37.0/24'
p465
aS'38.100.54.0/24'
p466
aS'38.100.56.0/24'
p467
aS'38.100.57.0/24'
p468
aS'38.100.60.0/24'
p469
aS'38.100.65.0/24'
p470
aS'38.100.67.0/24'
p471
aS'38.100.74.0/24'
p472
aS'38.100.76.0/24'
p473
aS'38.100.78.0/23'
p474
aS'38.100.80.0/24'
p475
aS'38.100.86.0/23'
p476
aS'38.100.111.0/24'
p477
aS'38.100.117.0/24'
p478
aS'38.100.121.0/24'
p479
aS'38.100.126.0/23'
p480
aS'38.100.132.0/23'
p481
aS'38.100.135.0/24'
p482
aS'38.100.139.0/24'
p483
aS'38.100.154.0/24'
p484
aS'38.100.158.0/24'
p485
aS'38.100.161.0/24'
p486
aS'38.100.169.0/24'
p487
aS'38.100.184.0/21'
p488
aS'38.100.198.0/24'
p489
aS'38.100.200.0/22'
p490
aS'38.100.241.0/24'
p491
aS'38.100.252.0/24'
p492
aS'38.101.13.0/24'
p493
aS'38.101.18.0/24'
p494
aS'38.101.19.0/24'
p495
aS'38.101.23.0/24'
p496
aS'38.101.24.0/24'
p497
aS'38.101.25.0/24'
p498
aS'38.101.26.0/23'
p499
aS'38.101.29.0/24'
p500
aS'38.101.30.0/24'
p501
aS'38.101.40.0/23'
p502
aS'38.101.44.0/23'
p503
aS'38.101.65.0/24'
p504
aS'38.101.70.0/23'
p505
aS'38.101.77.0/24'
p506
aS'38.101.91.0/24'
p507
aS'38.101.93.0/24'
p508
aS'38.101.108.0/24'
p509
aS'38.101.116.0/24'
p510
aS'38.101.134.0/24'
p511
aS'38.101.135.0/24'
p512
aS'38.101.138.0/24'
p513
aS'38.101.142.0/23'
p514
aS'38.101.153.0/24'
p515
aS'38.101.166.0/24'
p516
aS'38.101.172.0/24'
p517
aS'38.101.194.0/24'
p518
aS'38.101.198.0/24'
p519
aS'38.101.214.0/24'
p520
aS'38.101.229.0/24'
p521
aS'38.101.230.0/23'
p522
aS'38.101.233.0/24'
p523
aS'38.101.234.0/24'
p524
aS'38.101.236.0/24'
p525
aS'38.101.240.0/24'
p526
aS'38.101.241.0/24'
p527
aS'38.101.248.0/24'
p528
aS'38.101.249.0/24'
p529
aS'38.101.250.0/24'
p530
aS'38.101.251.0/24'
p531
aS'38.101.254.0/24'
p532
aS'38.102.4.0/23'
p533
aS'38.102.36.0/23'
p534
aS'38.102.40.0/22'
p535
aS'38.102.44.0/22'
p536
aS'38.102.49.0/24'
p537
aS'38.102.50.0/24'
p538
aS'38.102.51.0/24'
p539
aS'38.102.53.0/24'
p540
aS'38.102.55.0/24'
p541
aS'38.102.56.0/23'
p542
aS'38.102.58.0/23'
p543
aS'38.102.67.0/24'
p544
aS'38.102.68.0/24'
p545
aS'38.102.69.0/24'
p546
aS'38.102.70.0/23'
p547
aS'38.102.75.0/24'
p548
aS'38.102.76.0/22'
p549
aS'38.102.92.0/24'
p550
aS'38.102.93.0/24'
p551
aS'38.102.96.0/20'
p552
aS'38.102.112.0/21'
p553
aS'38.102.134.0/24'
p554
aS'38.102.140.0/22'
p555
aS'38.102.145.0/24'
p556
aS'38.102.149.0/24'
p557
aS'38.102.156.0/24'
p558
aS'38.102.158.0/24'
p559
aS'38.102.160.0/24'
p560
aS'38.102.161.0/24'
p561
aS'38.102.226.0/24'
p562
aS'38.102.227.0/24'
p563
aS'38.102.229.0/24'
p564
aS'38.102.232.0/23'
p565
aS'38.102.247.0/24'
p566
aS'38.103.14.0/24'
p567
aS'38.103.15.0/24'
p568
aS'38.103.22.0/24'
p569
aS'38.103.23.0/24'
p570
aS'38.103.24.0/24'
p571
aS'38.103.31.0/24'
p572
aS'38.103.32.0/24'
p573
aS'38.103.33.0/24'
p574
aS'38.103.34.0/24'
p575
aS'38.103.40.0/24'
p576
aS'38.103.45.0/24'
p577
aS'38.103.47.0/24'
p578
aS'38.103.51.0/24'
p579
aS'38.103.53.0/24'
p580
aS'38.103.56.0/22'
p581
aS'38.103.60.0/24'
p582
aS'38.103.93.0/24'
p583
aS'38.103.95.0/24'
p584
aS'38.103.97.0/24'
p585
aS'38.103.113.0/24'
p586
aS'38.103.140.0/23'
p587
aS'38.103.144.0/22'
p588
aS'38.103.149.0/24'
p589
aS'38.103.162.0/24'
p590
aS'38.103.172.0/22'
p591
aS'38.103.193.0/24'
p592
aS'38.103.194.0/24'
p593
aS'38.103.196.0/22'
p594
aS'38.103.212.0/24'
p595
aS'38.103.214.0/23'
p596
aS'38.103.226.0/24'
p597
aS'38.103.242.0/23'
p598
aS'38.104.227.0/24'
p599
aS'38.104.239.0/24'
p600
aS'38.105.7.0/24'
p601
aS'38.105.15.0/24'
p602
aS'38.105.36.0/22'
p603
aS'38.105.66.0/24'
p604
aS'38.105.69.0/24'
p605
aS'38.105.70.0/24'
p606
aS'38.105.84.0/24'
p607
aS'38.105.85.0/24'
p608
aS'38.105.89.0/24'
p609
aS'38.105.90.0/24'
p610
aS'38.105.93.0/24'
p611
aS'38.105.94.0/24'
p612
aS'38.105.102.0/24'
p613
aS'38.105.104.0/24'
p614
aS'38.105.107.0/24'
p615
aS'38.105.108.0/24'
p616
aS'38.105.123.0/24'
p617
aS'38.105.137.0/24'
p618
aS'38.105.149.0/24'
p619
aS'38.105.165.0/24'
p620
aS'38.105.176.0/22'
p621
aS'38.105.194.0/24'
p622
aS'38.105.195.0/24'
p623
aS'38.105.212.0/24'
p624
aS'38.105.219.0/24'
p625
aS'38.105.220.0/24'
p626
aS'38.105.232.0/24'
p627
aS'38.105.234.0/24'
p628
aS'38.105.240.0/24'
p629
aS'38.106.2.0/24'
p630
aS'38.106.4.0/23'
p631
aS'38.106.9.0/24'
p632
aS'38.106.10.0/24'
p633
aS'38.106.13.0/24'
p634
aS'38.106.14.0/23'
p635
aS'38.106.16.0/21'
p636
aS'38.106.25.0/24'
p637
aS'38.106.30.0/24'
p638
aS'38.106.31.0/24'
p639
aS'38.106.42.0/23'
p640
aS'38.106.68.0/24'
p641
aS'38.106.72.0/21'
p642
aS'38.106.80.0/24'
p643
aS'38.106.98.0/23'
p644
aS'38.106.100.0/23'
p645
aS'38.106.117.0/24'
p646
aS'38.106.120.0/21'
p647
aS'38.106.128.0/21'
p648
aS'38.106.140.0/24'
p649
aS'38.106.142.0/24'
p650
aS'38.106.144.0/23'
p651
aS'38.106.150.0/24'
p652
aS'38.106.152.0/24'
p653
aS'38.106.155.0/24'
p654
aS'38.106.158.0/23'
p655
aS'38.106.160.0/22'
p656
aS'38.106.166.0/23'
p657
aS'38.106.171.0/24'
p658
aS'38.106.180.0/22'
p659
aS'38.106.184.0/24'
p660
aS'38.106.186.0/23'
p661
aS'38.106.190.0/24'
p662
aS'38.106.246.0/24'
p663
aS'38.107.67.0/24'
p664
aS'38.107.68.0/24'
p665
aS'38.107.69.0/24'
p666
aS'38.107.70.0/24'
p667
aS'38.107.78.0/24'
p668
aS'38.107.81.0/24'
p669
aS'38.107.100.0/24'
p670
aS'38.107.102.0/23'
p671
aS'38.107.104.0/22'
p672
aS'38.107.108.0/24'
p673
aS'38.107.115.0/24'
p674
aS'38.107.136.0/23'
p675
aS'38.107.140.0/24'
p676
aS'38.107.142.0/24'
p677
aS'38.107.143.0/24'
p678
aS'38.107.148.0/24'
p679
aS'38.107.152.0/22'
p680
aS'38.107.168.0/23'
p681
aS'38.107.172.0/23'
p682
aS'38.107.174.0/23'
p683
aS'38.107.176.0/24'
p684
aS'38.107.177.0/24'
p685
aS'38.107.178.0/24'
p686
aS'38.107.184.0/23'
p687
aS'38.107.187.0/24'
p688
aS'38.107.192.0/21'
p689
aS'38.107.203.0/24'
p690
aS'38.107.206.0/24'
p691
aS'38.107.207.0/24'
p692
aS'38.107.214.0/23'
p693
aS'38.107.217.0/24'
p694
aS'38.107.218.0/23'
p695
aS'38.107.221.0/24'
p696
aS'38.107.222.0/24'
p697
aS'38.107.226.0/24'
p698
aS'38.107.232.0/21'
p699
aS'38.107.246.0/23'
p700
aS'38.107.248.0/24'
p701
aS'38.107.249.0/24'
p702
aS'38.107.250.0/24'
p703
aS'38.107.252.0/24'
p704
aS'38.107.254.0/23'
p705
aS'38.108.3.0/24'
p706
aS'38.108.5.0/24'
p707
aS'38.108.6.0/23'
p708
aS'38.108.9.0/24'
p709
aS'38.108.10.0/24'
p710
aS'38.108.16.0/23'
p711
aS'38.108.32.0/21'
p712
aS'38.108.48.0/24'
p713
aS'38.108.51.0/24'
p714
aS'38.108.52.0/23'
p715
aS'38.108.54.0/23'
p716
aS'38.108.56.0/22'
p717
aS'38.108.60.0/22'
p718
aS'38.108.64.0/24'
p719
aS'38.108.66.0/24'
p720
aS'38.108.72.0/24'
p721
aS'38.108.74.0/24'
p722
aS'38.108.78.0/24'
p723
aS'38.108.81.0/24'
p724
aS'38.108.85.0/24'
p725
aS'38.108.87.0/24'
p726
aS'38.108.92.0/24'
p727
aS'38.108.96.0/24'
p728
aS'38.108.114.0/24'
p729
aS'38.108.115.0/24'
p730
aS'38.108.117.0/24'
p731
aS'38.108.128.0/23'
p732
aS'38.108.136.0/21'
p733
aS'38.108.164.0/24'
p734
aS'38.108.180.0/24'
p735
aS'38.108.197.0/24'
p736
aS'38.108.200.0/24'
p737
aS'38.108.208.0/21'
p738
aS'38.108.217.0/24'
p739
aS'38.108.218.0/24'
p740
aS'38.108.224.0/24'
p741
aS'38.108.227.0/24'
p742
aS'38.108.233.0/24'
p743
aS'38.108.236.0/24'
p744
aS'38.108.237.0/24'
p745
aS'38.108.240.0/23'
p746
aS'38.108.244.0/24'
p747
aS'38.108.252.0/24'
p748
aS'38.109.28.0/22'
p749
aS'38.109.46.0/24'
p750
aS'38.109.70.0/24'
p751
aS'38.109.76.0/24'
p752
aS'38.109.82.0/24'
p753
aS'38.109.88.0/21'
p754
aS'38.109.96.0/22'
p755
aS'38.109.102.0/24'
p756
aS'38.109.119.0/24'
p757
aS'38.109.128.0/21'
p758
aS'38.109.135.0/24'
p759
aS'38.109.144.0/22'
p760
aS'38.109.158.0/23'
p761
aS'38.109.177.0/24'
p762
aS'38.109.178.0/23'
p763
aS'38.109.180.0/22'
p764
aS'38.109.190.0/23'
p765
aS'38.109.192.0/23'
p766
aS'38.109.196.0/24'
p767
aS'38.109.210.0/23'
p768
aS'38.109.212.0/24'
p769
aS'38.110.7.0/24'
p770
aS'38.110.16.0/21'
p771
aS'38.110.24.0/24'
p772
aS'38.110.25.0/24'
p773
aS'38.110.30.0/24'
p774
aS'38.110.31.0/24'
p775
aS'38.110.32.0/22'
p776
aS'38.110.37.0/24'
p777
aS'38.110.38.0/23'
p778
aS'38.110.40.0/22'
p779
aS'38.110.44.0/23'
p780
aS'38.110.59.0/24'
p781
aS'38.110.61.0/24'
p782
aS'38.110.65.0/24'
p783
aS'38.110.66.0/24'
p784
aS'38.110.76.0/24'
p785
aS'38.110.77.0/24'
p786
aS'38.110.82.0/24'
p787
aS'38.110.88.0/24'
p788
aS'38.110.89.0/24'
p789
aS'38.110.90.0/24'
p790
aS'38.110.128.0/21'
p791
aS'38.110.136.0/24'
p792
aS'38.110.146.0/24'
p793
aS'38.110.156.0/24'
p794
aS'38.110.157.0/24'
p795
aS'38.110.164.0/22'
p796
aS'38.110.168.0/22'
p797
aS'38.110.172.0/23'
p798
aS'38.110.176.0/21'
p799
aS'38.110.184.0/21'
p800
aS'38.110.200.0/22'
p801
aS'38.110.212.0/24'
p802
aS'38.110.217.0/24'
p803
aS'38.110.224.0/19'
p804
aS'38.111.4.0/24'
p805
aS'38.111.7.0/24'
p806
aS'38.111.11.0/24'
p807
aS'38.111.12.0/24'
p808
aS'38.111.14.0/24'
p809
aS'38.111.21.0/24'
p810
aS'38.111.29.0/24'
p811
aS'38.111.30.0/23'
p812
aS'38.111.34.0/24'
p813
aS'38.111.39.0/24'
p814
aS'38.111.46.0/24'
p815
aS'38.111.52.0/24'
p816
aS'38.111.56.0/24'
p817
aS'38.111.60.0/24'
p818
aS'38.111.104.0/24'
p819
aS'38.111.105.0/24'
p820
aS'38.111.106.0/24'
p821
aS'38.111.107.0/24'
p822
aS'38.111.113.0/24'
p823
aS'38.111.128.0/23'
p824
aS'38.111.142.0/23'
p825
aS'38.111.149.0/24'
p826
aS'38.111.152.0/24'
p827
aS'38.111.158.0/24'
p828
aS'38.111.176.0/22'
p829
aS'38.111.181.0/24'
p830
aS'38.111.184.0/21'
p831
aS'38.111.193.0/24'
p832
aS'38.111.194.0/23'
p833
aS'38.111.197.0/24'
p834
aS'38.111.224.0/24'
p835
aS'38.111.247.0/24'
p836
aS'38.111.248.0/24'
p837
aS'38.111.249.0/24'
p838
aS'38.111.252.0/24'
p839
aS'38.111.253.0/24'
p840
aS'38.112.57.0/24'
p841
aS'38.112.58.0/24'
p842
aS'38.112.98.0/23'
p843
aS'38.112.107.0/24'
p844
aS'38.112.108.0/22'
p845
aS'38.112.112.0/24'
p846
aS'38.112.164.0/24'
p847
aS'38.112.168.0/24'
p848
aS'38.112.185.0/24'
p849
aS'38.113.17.0/24'
p850
aS'38.113.86.0/24'
p851
aS'38.113.88.0/22'
p852
aS'38.113.117.0/24'
p853
aS'38.113.136.0/24'
p854
aS'38.113.144.0/24'
p855
aS'38.113.145.0/24'
p856
aS'38.113.162.0/24'
p857
aS'38.113.165.0/24'
p858
aS'38.113.167.0/24'
p859
aS'38.113.186.0/24'
p860
aS'38.113.187.0/24'
p861
aS'38.114.20.0/24'
p862
aS'38.114.43.0/24'
p863
aS'38.114.57.0/24'
p864
aS'38.114.64.0/21'
p865
aS'38.114.74.0/24'
p866
aS'38.114.76.0/22'
p867
aS'38.114.80.0/24'
p868
aS'38.114.82.0/23'
p869
aS'38.114.88.0/21'
p870
aS'38.114.96.0/24'
p871
aS'38.114.97.0/24'
p872
aS'38.114.99.0/24'
p873
aS'38.114.106.0/24'
p874
aS'38.114.116.0/23'
p875
aS'38.114.120.0/21'
p876
aS'38.114.193.0/24'
p877
aS'38.114.199.0/24'
p878
aS'38.114.200.0/24'
p879
aS'38.114.201.0/24'
p880
aS'38.114.202.0/23'
p881
aS'38.114.204.0/23'
p882
aS'38.114.209.0/24'
p883
aS'38.114.220.0/23'
p884
aS'38.114.223.0/24'
p885
aS'38.115.153.0/24'
p886
aS'38.115.160.0/24'
p887
aS'38.115.161.0/24'
p888
aS'38.115.162.0/24'
p889
aS'38.115.166.0/23'
p890
aS'38.115.169.0/24'
p891
aS'38.115.170.0/23'
p892
aS'38.115.182.0/24'
p893
aS'38.116.5.0/24'
p894
aS'38.116.28.0/22'
p895
aS'38.116.133.0/24'
p896
aS'38.116.136.0/23'
p897
aS'38.116.138.0/24'
p898
aS'38.116.144.0/24'
p899
aS'38.116.145.0/24'
p900
aS'38.116.192.0/24'
p901
aS'38.116.197.0/24'
p902
aS'38.117.64.0/24'
p903
aS'38.117.65.0/24'
p904
aS'38.117.72.0/24'
p905
aS'38.117.80.0/24'
p906
aS'38.117.83.0/24'
p907
aS'38.117.85.0/24'
p908
aS'38.117.87.0/24'
p909
aS'38.117.89.0/24'
p910
aS'38.117.93.0/24'
p911
aS'38.117.96.0/24'
p912
aS'38.117.97.0/24'
p913
aS'38.117.99.0/24'
p914
aS'38.117.102.0/24'
p915
aS'38.117.105.0/24'
p916
aS'38.117.140.0/24'
p917
aS'38.117.155.0/24'
p918
aS'38.117.178.0/24'
p919
aS'38.117.181.0/24'
p920
aS'38.117.216.0/24'
p921
aS'38.117.217.0/24'
p922
aS'38.117.241.0/24'
p923
aS'38.117.244.0/24'
p924
aS'38.118.10.0/24'
p925
aS'38.118.13.0/24'
p926
aS'38.118.23.0/24'
p927
aS'38.118.26.0/24'
p928
aS'38.118.30.0/24'
p929
aS'38.118.33.0/24'
p930
aS'38.118.41.0/24'
p931
aS'38.118.56.0/21'
p932
aS'38.118.70.0/24'
p933
aS'38.118.77.0/24'
p934
aS'38.118.80.0/24'
p935
aS'38.118.84.0/24'
p936
aS'38.118.129.0/24'
p937
aS'38.118.134.0/23'
p938
aS'38.118.136.0/24'
p939
aS'38.118.137.0/24'
p940
aS'38.118.148.0/23'
p941
aS'38.118.158.0/24'
p942
aS'38.118.159.0/24'
p943
aS'38.118.192.0/23'
p944
aS'38.118.208.0/24'
p945
aS'38.118.210.0/24'
p946
aS'38.118.224.0/23'
p947
aS'38.119.56.0/24'
p948
aS'38.119.60.0/22'
p949
aS'38.119.92.0/22'
p950
aS'38.119.115.0/24'
p951
aS'38.119.152.0/23'
p952
aS'38.119.159.0/24'
p953
aS'38.119.164.0/24'
p954
aS'38.119.166.0/23'
p955
aS'38.120.0.0/20'
p956
aS'38.121.0.0/19'
p957
aS'38.121.32.0/23'
p958
aS'38.121.36.0/23'
p959
aS'38.121.40.0/23'
p960
aS'38.121.44.0/22'
p961
aS'38.121.54.0/24'
p962
aS'38.121.55.0/24'
p963
aS'38.121.57.0/24'
p964
aS'38.121.59.0/24'
p965
aS'38.121.65.0/24'
p966
aS'38.121.66.0/23'
p967
aS'38.121.68.0/22'
p968
aS'38.121.80.0/20'
p969
aS'38.121.96.0/23'
p970
aS'38.121.98.0/24'
p971
aS'38.121.100.0/24'
p972
aS'38.121.101.0/24'
p973
aS'38.121.105.0/24'
p974
aS'38.121.112.0/24'
p975
aS'38.121.115.0/24'
p976
aS'38.121.116.0/24'
p977
aS'38.121.120.0/23'
p978
aS'38.121.132.0/24'
p979
aS'38.121.145.0/24'
p980
aS'38.121.158.0/24'
p981
aS'38.121.170.0/24'
p982
aS'38.121.171.0/24'
p983
aS'38.121.177.0/24'
p984
aS'38.121.181.0/24'
p985
aS'38.121.188.0/24'
p986
aS'38.121.189.0/24'
p987
aS'38.121.190.0/24'
p988
aS'38.121.192.0/21'
p989
aS'38.121.225.0/24'
p990
aS'38.121.227.0/24'
p991
aS'38.121.231.0/24'
p992
aS'38.121.235.0/24'
p993
aS'38.121.240.0/20'
p994
aS'38.123.0.0/23'
p995
aS'38.123.4.0/24'
p996
aS'38.123.6.0/24'
p997
aS'38.123.8.0/22'
p998
aS'38.123.14.0/23'
p999
aS'38.123.16.0/22'
p1000
aS'38.123.20.0/24'
p1001
aS'38.123.23.0/24'
p1002
aS'38.123.36.0/24'
p1003
aS'38.123.66.0/23'
p1004
aS'38.123.68.0/24'
p1005
aS'38.123.80.0/22'
p1006
aS'38.123.84.0/22'
p1007
aS'38.123.88.0/24'
p1008
aS'38.123.96.0/20'
p1009
aS'38.123.128.0/24'
p1010
aS'38.123.134.0/24'
p1011
aS'38.123.135.0/24'
p1012
aS'38.123.136.0/24'
p1013
aS'38.123.142.0/24'
p1014
aS'38.123.200.0/24'
p1015
aS'38.123.201.0/24'
p1016
aS'38.124.1.0/24'
p1017
aS'38.124.7.0/24'
p1018
aS'38.124.10.0/23'
p1019
aS'38.124.29.0/24'
p1020
aS'38.124.31.0/24'
p1021
aS'38.124.32.0/22'
p1022
aS'38.124.36.0/23'
p1023
aS'38.124.40.0/23'
p1024
aS'38.124.44.0/24'
p1025
aS'38.124.45.0/24'
p1026
aS'38.124.53.0/24'
p1027
aS'38.124.60.0/23'
p1028
aS'38.124.64.0/22'
p1029
aS'38.124.68.0/22'
p1030
aS'38.124.72.0/22'
p1031
aS'38.124.77.0/24'
p1032
aS'38.124.79.0/24'
p1033
aS'38.124.103.0/24'
p1034
aS'38.124.105.0/24'
p1035
aS'38.124.108.0/23'
p1036
aS'38.124.110.0/23'
p1037
aS'38.124.128.0/21'
p1038
aS'38.124.140.0/22'
p1039
aS'38.124.144.0/23'
p1040
aS'38.124.147.0/24'
p1041
aS'38.124.153.0/24'
p1042
aS'38.124.156.0/24'
p1043
aS'38.124.158.0/24'
p1044
aS'38.124.160.0/22'
p1045
aS'38.124.169.0/24'
p1046
aS'38.124.171.0/24'
p1047
aS'38.124.172.0/24'
p1048
aS'38.124.174.0/24'
p1049
aS'38.124.175.0/24'
p1050
aS'38.124.194.0/24'
p1051
aS'38.124.196.0/22'
p1052
aS'38.124.232.0/22'
p1053
aS'38.124.248.0/24'
p1054
aS'38.125.13.0/24'
p1055
aS'38.125.14.0/24'
p1056
aS'38.125.18.0/24'
p1057
aS'38.125.22.0/24'
p1058
aS'38.125.29.0/24'
p1059
aS'38.125.34.0/24'
p1060
aS'38.125.40.0/24'
p1061
aS'38.125.46.0/24'
p1062
aS'38.125.48.0/20'
p1063
aS'38.125.64.0/20'
p1064
aS'38.125.80.0/24'
p1065
aS'38.125.81.0/24'
p1066
aS'38.125.90.0/24'
p1067
aS'38.125.95.0/24'
p1068
aS'38.125.96.0/20'
p1069
aS'38.125.112.0/24'
p1070
aS'38.125.113.0/24'
p1071
aS'38.125.114.0/24'
p1072
aS'38.125.115.0/24'
p1073
aS'38.125.116.0/24'
p1074
aS'38.125.124.0/24'
p1075
aS'38.125.128.0/24'
p1076
aS'38.125.159.0/24'
p1077
aS'38.125.166.0/23'
p1078
aS'38.125.169.0/24'
p1079
aS'38.125.172.0/23'
p1080
aS'38.125.176.0/24'
p1081
aS'38.125.177.0/24'
p1082
aS'38.125.182.0/24'
p1083
aS'38.125.188.0/23'
p1084
aS'38.126.13.0/24'
p1085
aS'38.126.23.0/24'
p1086
aS'38.126.39.0/24'
p1087
aS'38.126.42.0/24'
p1088
aS'38.126.49.0/24'
p1089
aS'38.126.60.0/24'
p1090
aS'38.126.74.0/24'
p1091
aS'38.126.76.0/22'
p1092
aS'38.126.98.0/24'
p1093
aS'38.126.106.0/23'
p1094
aS'38.126.110.0/23'
p1095
aS'38.126.113.0/24'
p1096
aS'38.126.117.0/24'
p1097
aS'38.126.118.0/24'
p1098
aS'38.126.120.0/22'
p1099
aS'38.126.124.0/23'
p1100
aS'38.126.128.0/24'
p1101
aS'38.126.136.0/24'
p1102
aS'38.126.145.0/24'
p1103
aS'38.126.151.0/24'
p1104
aS'38.126.154.0/24'
p1105
aS'38.126.161.0/24'
p1106
aS'38.126.172.0/23'
p1107
aS'38.126.174.0/24'
p1108
aS'38.126.175.0/24'
p1109
aS'38.126.204.0/24'
p1110
aS'38.126.205.0/24'
p1111
aS'38.126.206.0/23'
p1112
aS'38.126.217.0/24'
p1113
aS'38.126.218.0/23'
p1114
aS'38.126.220.0/23'
p1115
aS'38.126.222.0/23'
p1116
aS'38.126.224.0/22'
p1117
aS'38.126.228.0/23'
p1118
aS'38.126.233.0/24'
p1119
aS'38.127.1.0/24'
p1120
aS'38.127.64.0/24'
p1121
aS'38.127.67.0/24'
p1122
aS'38.127.68.0/23'
p1123
aS'38.127.72.0/23'
p1124
aS'38.127.74.0/23'
p1125
aS'38.127.97.0/24'
p1126
aS'38.127.129.0/24'
p1127
aS'38.127.130.0/23'
p1128
aS'38.127.132.0/24'
p1129
aS'38.127.137.0/24'
p1130
aS'38.127.138.0/24'
p1131
aS'38.127.140.0/24'
p1132
aS'38.127.144.0/23'
p1133
aS'38.127.147.0/24'
p1134
aS'38.127.148.0/22'
p1135
aS'38.127.154.0/23'
p1136
aS'38.127.156.0/24'
p1137
aS'38.127.158.0/24'
p1138
aS'38.127.159.0/24'
p1139
aS'38.127.160.0/24'
p1140
aS'38.127.164.0/24'
p1141
aS'38.127.166.0/24'
p1142
aS'38.127.170.0/23'
p1143
aS'38.127.178.0/24'
p1144
aS'38.127.179.0/24'
p1145
aS'38.127.180.0/24'
p1146
aS'38.127.181.0/24'
p1147
aS'38.127.184.0/21'
p1148
aS'38.127.199.0/24'
p1149
aS'38.127.201.0/24'
p1150
aS'38.127.202.0/24'
p1151
aS'38.127.203.0/24'
p1152
aS'38.127.204.0/24'
p1153
aS'38.127.208.0/24'
p1154
aS'38.127.211.0/24'
p1155
aS'38.127.216.0/24'
p1156
aS'38.127.218.0/23'
p1157
aS'38.127.222.0/23'
p1158
aS'38.128.0.0/23'
p1159
aS'38.128.4.0/22'
p1160
aS'38.128.64.0/24'
p1161
aS'38.136.24.0/24'
p1162
aS'38.136.218.0/24'
p1163
aS'38.138.251.0/24'
p1164
aS'38.139.8.0/24'
p1165
aS'38.139.36.0/24'
p1166
aS'38.139.48.0/24'
p1167
aS'38.139.49.0/24'
p1168
aS'38.139.50.0/24'
p1169
aS'38.139.51.0/24'
p1170
aS'38.139.52.0/24'
p1171
aS'38.139.53.0/24'
p1172
aS'38.139.54.0/24'
p1173
aS'38.148.106.0/24'
p1174
aS'38.150.55.0/24'
p1175
aS'38.150.246.0/24'
p1176
aS'38.151.158.0/24'
p1177
aS'38.151.169.0/24'
p1178
aS'38.153.190.0/24'
p1179
aS'38.155.79.0/24'
p1180
aS'38.155.155.0/24'
p1181
aS'38.157.74.0/24'
p1182
aS'38.157.239.0/24'
p1183
aS'38.158.219.0/24'
p1184
aS'38.160.74.0/24'
p1185
aS'38.161.42.0/24'
p1186
aS'38.162.92.0/24'
p1187
aS'38.162.124.0/24'
p1188
aS'38.163.141.0/24'
p1189
aS'38.164.20.0/23'
p1190
aS'38.164.240.0/24'
p1191
aS'38.165.139.0/24'
p1192
aS'38.166.42.0/24'
p1193
aS'38.167.43.0/24'
p1194
aS'38.167.204.0/24'
p1195
aS'38.184.12.0/24'
p1196
aS'38.185.59.0/24'
p1197
aS'38.186.35.0/24'
p1198
aS'38.200.3.0/24'
p1199
aS'38.200.23.0/24'
p1200
aS'38.200.193.0/24'
p1201
aS'38.201.59.0/24'
p1202
aS'38.208.144.0/22'
p1203
aS'38.210.42.0/24'
p1204
aS'38.211.69.0/24'
p1205
aS'38.216.220.0/24'
p1206
aS'38.218.76.0/23'
p1207
aS'38.219.132.0/24'
p1208
aS'38.219.169.0/24'
p1209
aS'38.221.129.0/24'
p1210
aS'38.221.208.0/24'
p1211
aS'38.223.231.0/24'
p1212
aS'38.223.237.0/24'
p1213
aS'38.226.110.0/24'
p1214
aS'38.227.116.0/24'
p1215
aS'38.228.47.0/24'
p1216
aS'38.228.183.0/24'
p1217
aS'38.230.89.0/24'
p1218
aS'38.232.69.0/24'
p1219
aS'38.232.74.0/24'
p1220
aS'38.234.38.0/24'
p1221
aS'38.234.162.0/24'
p1222
aS'38.241.193.0/24'
p1223
aS'38.242.0.0/24'
p1224
aS'38.242.100.0/24'
p1225
aS'38.243.64.0/24'
p1226
aS'38.244.100.0/24'
p1227
aS'38.244.141.0/24'
p1228
aS'38.245.54.0/24'
p1229
aS'38.247.149.0/24'
p1230
aS'38.247.211.0/24'
p1231
aS'38.248.70.0/23'
p1232
aS'38.250.216.0/24'
p1233
aS'38.251.246.0/24'
p1234
aS'46.17.208.0/21'
p1235
aS'50.7.1.0/24'
p1236
aS'50.7.2.0/24'
p1237
aS'50.7.3.0/24'
p1238
aS'50.7.36.0/24'
p1239
aS'50.7.37.0/24'
p1240
aS'50.7.38.0/24'
p1241
aS'50.7.39.0/24'
p1242
aS'50.7.40.0/24'
p1243
aS'50.7.41.0/24'
p1244
aS'50.7.42.0/24'
p1245
aS'50.7.43.0/24'
p1246
aS'50.7.44.0/24'
p1247
aS'50.7.45.0/24'
p1248
aS'50.7.46.0/24'
p1249
aS'50.7.47.0/24'
p1250
aS'50.7.48.0/24'
p1251
aS'50.7.49.0/24'
p1252
aS'50.7.50.0/24'
p1253
aS'50.7.51.0/24'
p1254
aS'50.7.52.0/24'
p1255
aS'50.7.53.0/24'
p1256
aS'50.7.54.0/24'
p1257
aS'50.7.55.0/24'
p1258
aS'50.7.56.0/24'
p1259
aS'50.7.57.0/24'
p1260
aS'50.7.58.0/24'
p1261
aS'50.7.60.0/24'
p1262
aS'50.7.61.0/24'
p1263
aS'50.7.62.0/24'
p1264
aS'50.7.63.0/24'
p1265
aS'50.7.64.0/22'
p1266
aS'50.7.128.0/22'
p1267
aS'50.7.132.0/22'
p1268
aS'50.7.136.0/22'
p1269
aS'50.7.160.0/22'
p1270
aS'50.7.168.0/22'
p1271
aS'50.7.172.0/22'
p1272
aS'50.7.180.0/22'
p1273
aS'50.7.184.0/24'
p1274
aS'50.7.185.0/24'
p1275
aS'61.28.217.0/24'
p1276
aS'61.28.218.0/24'
p1277
aS'63.75.49.0/24'
p1278
aS'63.117.79.0/24'
p1279
aS'63.247.224.0/19'
p1280
aS'64.4.192.0/19'
p1281
aS'64.4.202.0/24'
p1282
aS'64.4.207.0/24'
p1283
aS'64.16.217.0/24'
p1284
aS'64.17.48.0/20'
p1285
aS'64.187.208.0/24'
p1286
aS'64.189.208.0/20'
p1287
aS'64.202.0.0/19'
p1288
aS'64.254.50.0/23'
p1289
aS'64.254.192.0/19'
p1290
aS'64.254.193.0/24'
p1291
aS'64.254.208.0/24'
p1292
aS'64.254.218.0/24'
p1293
aS'65.219.101.0/24'
p1294
aS'65.255.45.0/24'
p1295
aS'66.28.0.0/16'
p1296
aS'66.28.1.0/24'
p1297
aS'66.28.9.0/24'
p1298
aS'66.28.27.0/24'
p1299
aS'66.28.50.0/24'
p1300
aS'66.28.99.0/24'
p1301
aS'66.28.108.0/24'
p1302
aS'66.28.139.0/24'
p1303
aS'66.28.179.0/24'
p1304
aS'66.28.216.0/24'
p1305
aS'66.28.218.0/24'
p1306
aS'66.28.220.0/23'
p1307
aS'66.28.228.0/24'
p1308
aS'66.28.242.0/23'
p1309
aS'66.28.250.0/23'
p1310
aS'66.28.252.0/23'
p1311
aS'66.71.224.0/20'
p1312
aS'66.71.224.0/24'
p1313
aS'66.71.229.0/24'
p1314
aS'66.71.230.0/23'
p1315
aS'66.71.232.0/22'
p1316
aS'66.90.82.0/24'
p1317
aS'66.90.84.0/24'
p1318
aS'66.90.91.0/24'
p1319
aS'66.90.96.0/24'
p1320
aS'66.90.98.0/24'
p1321
aS'66.90.99.0/24'
p1322
aS'66.90.108.0/24'
p1323
aS'66.90.111.0/24'
p1324
aS'66.90.119.0/24'
p1325
aS'66.90.120.0/24'
p1326
aS'66.90.121.0/24'
p1327
aS'66.90.122.0/24'
p1328
aS'66.90.125.0/24'
p1329
aS'66.97.29.0/24'
p1330
aS'66.102.96.0/19'
p1331
aS'66.102.96.0/24'
p1332
aS'66.102.120.0/23'
p1333
aS'66.102.126.0/24'
p1334
aS'66.102.127.0/24'
p1335
aS'66.132.0.0/17'
p1336
aS'66.206.64.0/20'
p1337
aS'66.213.165.0/24'
p1338
aS'66.213.166.0/24'
p1339
aS'66.232.160.0/19'
p1340
aS'66.250.0.0/16'
p1341
aS'66.250.40.0/23'
p1342
aS'66.250.94.0/24'
p1343
aS'66.250.142.0/23'
p1344
aS'66.250.190.0/23'
p1345
aS'66.250.200.0/22'
p1346
aS'67.21.144.0/22'
p1347
aS'67.21.148.0/22'
p1348
aS'67.43.112.0/20'
p1349
aS'67.159.0.0/24'
p1350
aS'67.159.1.0/24'
p1351
aS'67.159.10.0/24'
p1352
aS'67.159.13.0/24'
p1353
aS'67.159.16.0/24'
p1354
aS'67.159.19.0/24'
p1355
aS'67.159.39.0/24'
p1356
aS'67.159.40.0/24'
p1357
aS'67.159.41.0/24'
p1358
aS'67.159.42.0/24'
p1359
aS'67.159.43.0/24'
p1360
aS'67.159.44.0/24'
p1361
aS'67.159.45.0/24'
p1362
aS'67.159.46.0/24'
p1363
aS'67.159.47.0/24'
p1364
aS'67.159.48.0/24'
p1365
aS'67.159.49.0/24'
p1366
aS'67.159.50.0/24'
p1367
aS'67.159.51.0/24'
p1368
aS'67.159.52.0/24'
p1369
aS'67.159.53.0/24'
p1370
aS'67.159.55.0/24'
p1371
aS'67.159.56.0/24'
p1372
aS'67.159.57.0/24'
p1373
aS'67.159.58.0/24'
p1374
aS'67.205.242.0/23'
p1375
aS'67.205.244.0/22'
p1376
aS'67.205.248.0/22'
p1377
aS'67.205.252.0/23'
p1378
aS'67.205.255.0/24'
p1379
aS'67.220.224.0/19'
p1380
aS'68.180.0.0/22'
p1381
aS'68.237.128.0/21'
p1382
aS'69.1.227.0/24'
p1383
aS'69.1.228.0/24'
p1384
aS'69.1.254.0/24'
p1385
aS'69.1.255.0/24'
p1386
aS'69.5.56.0/24'
p1387
aS'69.5.58.0/24'
p1388
aS'69.41.80.0/20'
p1389
aS'69.166.112.0/22'
p1390
aS'69.166.116.0/23'
p1391
aS'69.169.224.0/20'
p1392
aS'70.35.24.0/21'
p1393
aS'72.13.128.0/20'
p1394
aS'72.13.148.0/23'
p1395
aS'72.13.150.0/24'
p1396
aS'72.34.176.0/20'
p1397
aS'74.63.64.0/24'
p1398
aS'74.63.65.0/24'
p1399
aS'74.63.66.0/24'
p1400
aS'74.63.67.0/24'
p1401
aS'74.63.68.0/24'
p1402
aS'74.63.69.0/24'
p1403
aS'74.63.70.0/24'
p1404
aS'74.63.71.0/24'
p1405
aS'74.63.72.0/24'
p1406
aS'74.63.73.0/24'
p1407
aS'74.63.75.0/24'
p1408
aS'74.63.79.0/24'
p1409
aS'74.63.84.0/24'
p1410
aS'74.63.85.0/24'
p1411
aS'74.63.86.0/24'
p1412
aS'74.63.87.0/24'
p1413
aS'74.63.88.0/24'
p1414
aS'74.63.89.0/24'
p1415
aS'74.63.90.0/24'
p1416
aS'74.63.91.0/24'
p1417
aS'74.63.92.0/24'
p1418
aS'74.63.93.0/24'
p1419
aS'74.63.97.0/24'
p1420
aS'74.63.99.0/24'
p1421
aS'74.63.101.0/24'
p1422
aS'74.63.105.0/24'
p1423
aS'74.63.109.0/24'
p1424
aS'74.63.111.0/24'
p1425
aS'74.63.112.0/24'
p1426
aS'74.63.116.0/24'
p1427
aS'74.63.117.0/24'
p1428
aS'74.63.118.0/24'
p1429
aS'74.63.122.0/24'
p1430
aS'74.63.123.0/24'
p1431
aS'74.112.72.0/23'
p1432
aS'74.118.111.0/24'
p1433
aS'74.118.200.0/21'
p1434
aS'74.119.175.0/24'
p1435
aS'74.126.224.0/20'
p1436
aS'74.220.16.0/20'
p1437
aS'74.221.210.0/24'
p1438
aS'74.221.211.0/24'
p1439
aS'74.221.212.0/24'
p1440
aS'74.221.213.0/24'
p1441
aS'74.221.214.0/24'
p1442
aS'74.221.215.0/24'
p1443
aS'74.221.217.0/24'
p1444
aS'74.221.219.0/24'
p1445
aS'74.221.220.0/24'
p1446
aS'76.73.1.0/24'
p1447
aS'76.73.2.0/24'
p1448
aS'76.73.3.0/24'
p1449
aS'76.73.5.0/24'
p1450
aS'76.73.6.0/24'
p1451
aS'76.73.7.0/24'
p1452
aS'76.73.8.0/24'
p1453
aS'76.73.9.0/24'
p1454
aS'76.73.10.0/24'
p1455
aS'76.73.11.0/24'
p1456
aS'76.73.12.0/24'
p1457
aS'76.73.19.0/24'
p1458
aS'76.73.20.0/24'
p1459
aS'76.73.21.0/24'
p1460
aS'76.73.22.0/24'
p1461
aS'76.73.25.0/24'
p1462
aS'76.73.26.0/24'
p1463
aS'76.73.27.0/24'
p1464
aS'76.73.28.0/24'
p1465
aS'76.73.30.0/24'
p1466
aS'76.73.31.0/24'
p1467
aS'76.73.35.0/24'
p1468
aS'76.73.36.0/24'
p1469
aS'76.73.37.0/24'
p1470
aS'76.73.38.0/24'
p1471
aS'76.73.39.0/24'
p1472
aS'76.73.40.0/24'
p1473
aS'76.73.41.0/24'
p1474
aS'76.73.42.0/24'
p1475
aS'76.73.43.0/24'
p1476
aS'76.73.44.0/24'
p1477
aS'76.73.45.0/24'
p1478
aS'76.73.46.0/24'
p1479
aS'76.73.47.0/24'
p1480
aS'76.73.48.0/24'
p1481
aS'76.73.49.0/24'
p1482
aS'76.73.50.0/24'
p1483
aS'76.73.52.0/24'
p1484
aS'76.73.54.0/24'
p1485
aS'76.73.55.0/24'
p1486
aS'76.73.57.0/24'
p1487
aS'76.73.58.0/24'
p1488
aS'76.73.62.0/24'
p1489
aS'76.73.64.0/24'
p1490
aS'76.73.66.0/24'
p1491
aS'76.73.67.0/24'
p1492
aS'76.73.69.0/24'
p1493
aS'76.73.71.0/24'
p1494
aS'76.73.72.0/24'
p1495
aS'76.73.74.0/24'
p1496
aS'76.73.75.0/24'
p1497
aS'76.73.76.0/24'
p1498
aS'76.73.77.0/24'
p1499
aS'76.73.78.0/24'
p1500
aS'76.73.80.0/24'
p1501
aS'76.73.82.0/24'
p1502
aS'76.73.83.0/24'
p1503
aS'76.73.86.0/24'
p1504
aS'76.73.87.0/24'
p1505
aS'76.73.88.0/24'
p1506
aS'76.73.89.0/24'
p1507
aS'76.73.90.0/24'
p1508
aS'76.73.91.0/24'
p1509
aS'76.73.94.0/24'
p1510
aS'76.73.101.0/24'
p1511
aS'76.73.102.0/24'
p1512
aS'76.73.103.0/24'
p1513
aS'76.73.104.0/24'
p1514
aS'76.73.106.0/24'
p1515
aS'76.73.107.0/24'
p1516
aS'76.73.108.0/24'
p1517
aS'76.73.109.0/24'
p1518
aS'76.73.114.0/24'
p1519
aS'76.73.115.0/24'
p1520
aS'76.73.116.0/24'
p1521
aS'76.73.117.0/24'
p1522
aS'76.73.118.0/24'
p1523
aS'76.73.122.0/24'
p1524
aS'76.73.123.0/24'
p1525
aS'76.77.18.0/24'
p1526
aS'76.77.19.0/24'
p1527
aS'76.77.20.0/24'
p1528
aS'76.77.21.0/24'
p1529
aS'76.77.22.0/24'
p1530
aS'76.77.23.0/24'
p1531
aS'76.77.24.0/24'
p1532
aS'76.77.25.0/24'
p1533
aS'80.91.64.0/19'
p1534
aS'80.91.66.0/24'
p1535
aS'80.91.68.0/24'
p1536
aS'80.91.69.0/24'
p1537
aS'80.91.73.0/24'
p1538
aS'80.91.74.0/24'
p1539
aS'80.91.75.0/24'
p1540
aS'80.91.79.0/24'
p1541
aS'80.91.80.0/24'
p1542
aS'80.91.82.0/23'
p1543
aS'80.91.84.0/23'
p1544
aS'80.91.86.0/24'
p1545
aS'80.91.89.0/24'
p1546
aS'80.91.90.0/23'
p1547
aS'80.91.94.0/24'
p1548
aS'80.244.48.0/20'
p1549
aS'80.245.32.0/19'
p1550
aS'80.245.38.0/24'
p1551
aS'80.245.61.0/24'
p1552
aS'80.245.62.0/23'
p1553
aS'81.2.128.0/18'
p1554
aS'81.2.128.0/24'
p1555
aS'81.2.130.0/24'
p1556
aS'81.2.132.0/22'
p1557
aS'81.2.136.0/22'
p1558
aS'81.2.187.0/24'
p1559
aS'82.129.0.0/17'
p1560
aS'82.129.5.0/24'
p1561
aS'82.129.13.0/24'
p1562
aS'82.129.16.0/23'
p1563
aS'82.129.18.0/24'
p1564
aS'82.129.25.0/24'
p1565
aS'82.129.27.0/24'
p1566
aS'82.129.34.0/24'
p1567
aS'82.129.44.0/24'
p1568
aS'82.129.65.0/24'
p1569
aS'82.129.72.0/22'
p1570
aS'82.129.76.0/22'
p1571
aS'82.138.64.0/18'
p1572
aS'82.138.67.0/24'
p1573
aS'82.138.71.0/24'
p1574
aS'82.138.81.0/24'
p1575
aS'82.138.83.0/24'
p1576
aS'82.138.100.0/22'
p1577
aS'82.138.107.0/24'
p1578
aS'82.138.109.0/24'
p1579
aS'82.138.111.0/24'
p1580
aS'88.151.224.0/24'
p1581
aS'88.151.231.0/24'
p1582
aS'90.159.224.0/21'
p1583
aS'90.159.232.0/22'
p1584
aS'90.159.236.0/22'
p1585
aS'91.189.104.0/21'
p1586
aS'91.195.187.0/24'
p1587
aS'91.197.248.0/22'
p1588
aS'91.198.26.0/24'
p1589
aS'91.200.116.0/22'
p1590
aS'91.212.3.0/24'
p1591
aS'91.216.36.0/24'
p1592
aS'91.223.67.0/24'
p1593
aS'91.223.87.0/24'
p1594
aS'91.223.207.0/24'
p1595
aS'91.227.186.0/24'
p1596
aS'91.229.180.0/24'
p1597
aS'91.234.104.0/22'
p1598
aS'91.234.233.0/24'
p1599
aS'91.234.234.0/23'
p1600
aS'91.234.236.0/22'
p1601
aS'91.243.115.0/24'
p1602
aS'92.121.32.0/19'
p1603
aS'93.158.202.0/24'
p1604
aS'93.159.208.0/22'
p1605
aS'93.159.212.0/23'
p1606
aS'93.159.214.0/24'
p1607
aS'93.159.215.0/24'
p1608
aS'94.102.192.0/21'
p1609
aS'94.102.192.0/24'
p1610
aS'94.125.183.0/24'
p1611
aS'94.126.192.0/21'
p1612
aS'94.126.196.0/23'
p1613
aS'94.126.198.0/23'
p1614
aS'95.129.248.0/21'
p1615
aS'96.47.192.0/20'
p1616
aS'100.43.16.0/21'
p1617
aS'103.250.205.0/24'
p1618
aS'108.59.34.0/24'
p1619
aS'108.169.228.0/22'
p1620
aS'108.169.248.0/22'
p1621
aS'128.145.0.0/16'
p1622
aS'128.241.24.0/21'
p1623
aS'128.245.0.0/16'
p1624
aS'130.117.0.0/16'
p1625
aS'130.117.10.0/23'
p1626
aS'130.117.42.0/24'
p1627
aS'130.117.45.0/24'
p1628
aS'130.117.46.0/23'
p1629
aS'130.117.53.0/24'
p1630
aS'130.117.54.0/24'
p1631
aS'130.117.57.0/24'
p1632
aS'130.117.60.0/23'
p1633
aS'130.117.83.0/24'
p1634
aS'130.117.90.0/24'
p1635
aS'130.117.119.0/24'
p1636
aS'130.117.122.0/24'
p1637
aS'130.117.125.0/24'
p1638
aS'130.117.140.0/23'
p1639
aS'130.117.169.0/24'
p1640
aS'130.117.185.0/24'
p1641
aS'130.117.193.0/24'
p1642
aS'130.117.194.0/24'
p1643
aS'130.117.225.0/24'
p1644
aS'130.117.234.0/24'
p1645
aS'130.117.236.0/24'
p1646
aS'130.117.237.0/24'
p1647
aS'130.117.246.0/23'
p1648
aS'130.117.250.0/24'
p1649
aS'130.117.252.0/24'
p1650
aS'130.117.253.0/24'
p1651
aS'131.125.0.0/16'
p1652
aS'136.161.0.0/16'
p1653
aS'136.161.100.0/24'
p1654
aS'136.204.0.0/16'
p1655
aS'140.174.179.0/24'
p1656
aS'141.11.254.0/24'
p1657
aS'142.131.210.0/23'
p1658
aS'142.155.0.0/16'
p1659
aS'143.240.0.0/16'
p1660
aS'144.211.88.0/24'
p1661
aS'144.211.99.0/24'
p1662
aS'147.79.192.0/20'
p1663
aS'148.254.0.0/16'
p1664
aS'149.2.0.0/16'
p1665
aS'149.5.0.0/16'
p1666
aS'149.5.1.0/24'
p1667
aS'149.5.2.0/24'
p1668
aS'149.5.20.0/24'
p1669
aS'149.5.22.0/24'
p1670
aS'149.5.32.0/24'
p1671
aS'149.5.34.0/24'
p1672
aS'149.5.35.0/24'
p1673
aS'149.5.36.0/22'
p1674
aS'149.5.40.0/22'
p1675
aS'149.5.44.0/24'
p1676
aS'149.5.45.0/24'
p1677
aS'149.5.47.0/24'
p1678
aS'149.5.67.0/24'
p1679
aS'149.5.71.0/24'
p1680
aS'149.5.72.0/23'
p1681
aS'149.5.79.0/24'
p1682
aS'149.5.82.0/23'
p1683
aS'149.5.98.0/23'
p1684
aS'149.5.100.0/23'
p1685
aS'149.5.103.0/24'
p1686
aS'149.5.108.0/23'
p1687
aS'149.5.111.0/24'
p1688
aS'149.5.113.0/24'
p1689
aS'149.5.114.0/23'
p1690
aS'149.5.116.0/24'
p1691
aS'149.5.117.0/24'
p1692
aS'149.5.144.0/24'
p1693
aS'149.5.169.0/24'
p1694
aS'149.5.241.0/24'
p1695
aS'149.6.0.0/15'
p1696
aS'149.6.16.0/24'
p1697
aS'149.6.127.0/24'
p1698
aS'149.7.1.0/24'
p1699
aS'149.7.16.0/23'
p1700
aS'149.7.34.0/24'
p1701
aS'149.7.35.0/24'
p1702
aS'149.7.38.0/23'
p1703
aS'149.7.55.0/24'
p1704
aS'149.7.60.0/23'
p1705
aS'149.7.97.0/24'
p1706
aS'149.7.99.0/24'
p1707
aS'149.7.114.0/23'
p1708
aS'149.7.209.0/24'
p1709
aS'149.7.210.0/23'
p1710
aS'149.7.212.0/24'
p1711
aS'149.7.217.0/24'
p1712
aS'149.11.0.0/16'
p1713
aS'149.12.0.0/15'
p1714
aS'149.12.67.0/24'
p1715
aS'149.12.68.0/23'
p1716
aS'149.12.70.0/24'
p1717
aS'149.12.96.0/24'
p1718
aS'149.12.98.0/24'
p1719
aS'149.12.177.0/24'
p1720
aS'149.12.179.0/24'
p1721
aS'149.12.216.0/22'
p1722
aS'149.13.0.0/24'
p1723
aS'149.13.16.0/24'
p1724
aS'149.13.18.0/23'
p1725
aS'149.13.20.0/22'
p1726
aS'149.13.28.0/24'
p1727
aS'149.13.30.0/23'
p1728
aS'149.13.32.0/24'
p1729
aS'149.13.64.0/24'
p1730
aS'149.13.70.0/24'
p1731
aS'149.13.71.0/24'
p1732
aS'149.13.72.0/24'
p1733
aS'149.13.73.0/24'
p1734
aS'149.13.80.0/22'
p1735
aS'149.13.114.0/24'
p1736
aS'149.13.120.0/21'
p1737
aS'149.13.145.0/24'
p1738
aS'149.13.241.0/24'
p1739
aS'149.13.242.0/23'
p1740
aS'149.13.244.0/22'
p1741
aS'149.14.0.0/16'
p1742
aS'149.16.0.0/16'
p1743
aS'149.18.0.0/16'
p1744
aS'149.22.0.0/16'
p1745
aS'149.24.174.0/23'
p1746
aS'149.24.176.0/23'
p1747
aS'149.24.180.0/24'
p1748
aS'149.29.0.0/16'
p1749
aS'149.30.0.0/16'
p1750
aS'149.33.0.0/16'
p1751
aS'149.34.0.0/15'
p1752
aS'149.36.0.0/16'
p1753
aS'149.38.0.0/16'
p1754
aS'149.40.0.0/16'
p1755
aS'149.46.0.0/16'
p1756
aS'149.50.0.0/15'
p1757
aS'149.52.0.0/15'
p1758
aS'149.57.0.0/16'
p1759
aS'149.66.0.0/15'
p1760
aS'149.67.0.0/16'
p1761
aS'149.71.0.0/16'
p1762
aS'149.71.56.0/23'
p1763
aS'149.78.0.0/16'
p1764
aS'149.85.0.0/16'
p1765
aS'149.86.0.0/15'
p1766
aS'149.88.0.0/16'
p1767
aS'149.91.0.0/16'
p1768
aS'149.91.6.0/23'
p1769
aS'149.92.0.0/14'
p1770
aS'149.100.0.0/16'
p1771
aS'149.100.0.0/24'
p1772
aS'149.100.2.0/23'
p1773
aS'149.100.4.0/22'
p1774
aS'149.100.8.0/24'
p1775
aS'149.100.64.0/24'
p1776
aS'149.100.160.0/22'
p1777
aS'149.102.0.0/16'
p1778
aS'149.104.0.0/16'
p1779
aS'149.108.0.0/16'
p1780
aS'149.110.0.0/16'
p1781
aS'149.113.0.0/16'
p1782
aS'149.120.0.0/16'
p1783
aS'149.127.0.0/16'
p1784
aS'149.127.2.0/24'
p1785
aS'149.127.8.0/24'
p1786
aS'149.127.10.0/24'
p1787
aS'149.127.13.0/24'
p1788
aS'149.127.15.0/24'
p1789
aS'149.127.50.0/24'
p1790
aS'149.127.109.0/24'
p1791
aS'151.153.0.0/16'
p1792
aS'151.173.3.0/24'
p1793
aS'151.173.4.0/24'
p1794
aS'151.173.8.0/24'
p1795
aS'151.173.12.0/24'
p1796
aS'154.3.0.0/16'
p1797
aS'154.6.0.0/15'
p1798
aS'154.6.101.0/24'
p1799
aS'154.6.115.0/24'
p1800
aS'154.6.122.0/24'
p1801
aS'154.9.0.0/16'
p1802
aS'154.12.0.0/15'
p1803
aS'154.18.0.0/15'
p1804
aS'154.24.0.0/13'
p1805
aS'154.36.0.0/14'
p1806
aS'154.36.0.0/16'
p1807
aS'154.37.0.0/16'
p1808
aS'154.37.180.0/24'
p1809
aS'154.40.0.0/13'
p1810
aS'154.41.66.0/23'
p1811
aS'154.42.193.0/24'
p1812
aS'154.43.1.0/24'
p1813
aS'154.43.2.0/24'
p1814
aS'154.43.4.0/22'
p1815
aS'154.43.164.0/22'
p1816
aS'154.44.64.0/23'
p1817
aS'154.44.66.0/23'
p1818
aS'154.44.136.0/24'
p1819
aS'154.44.138.0/24'
p1820
aS'154.44.139.0/24'
p1821
aS'154.44.140.0/22'
p1822
aS'154.44.176.0/23'
p1823
aS'154.44.178.0/23'
p1824
aS'154.44.186.0/23'
p1825
aS'154.44.190.0/24'
p1826
aS'154.44.191.0/24'
p1827
aS'154.44.192.0/24'
p1828
aS'154.45.2.0/23'
p1829
aS'154.45.41.0/24'
p1830
aS'154.45.42.0/24'
p1831
aS'154.45.205.0/24'
p1832
aS'154.45.212.0/23'
p1833
aS'154.46.33.0/24'
p1834
aS'154.46.34.0/24'
p1835
aS'154.46.35.0/24'
p1836
aS'154.46.36.0/24'
p1837
aS'154.46.168.0/24'
p1838
aS'154.47.0.0/24'
p1839
aS'154.47.1.0/24'
p1840
aS'154.47.66.0/24'
p1841
aS'154.47.68.0/24'
p1842
aS'154.47.72.0/22'
p1843
aS'154.47.128.0/24'
p1844
aS'154.47.160.0/24'
p1845
aS'154.48.0.0/12'
p1846
aS'154.48.128.0/24'
p1847
aS'154.48.130.0/23'
p1848
aS'154.48.132.0/22'
p1849
aS'154.48.136.0/21'
p1850
aS'154.48.144.0/22'
p1851
aS'154.48.148.0/24'
p1852
aS'154.48.149.0/24'
p1853
aS'154.48.150.0/23'
p1854
aS'154.48.152.0/24'
p1855
aS'154.48.156.0/22'
p1856
aS'154.48.195.0/24'
p1857
aS'154.48.197.0/24'
p1858
aS'154.49.194.0/24'
p1859
aS'154.49.196.0/22'
p1860
aS'154.49.224.0/19'
p1861
aS'154.49.224.0/20'
p1862
aS'154.49.240.0/20'
p1863
aS'154.50.1.0/24'
p1864
aS'154.50.136.0/22'
p1865
aS'154.50.194.0/23'
p1866
aS'154.50.196.0/24'
p1867
aS'154.50.207.0/24'
p1868
aS'154.50.210.0/23'
p1869
aS'154.51.66.0/23'
p1870
aS'154.51.131.0/24'
p1871
aS'154.51.140.0/22'
p1872
aS'154.52.0.0/23'
p1873
aS'154.52.32.0/24'
p1874
aS'154.53.1.0/24'
p1875
aS'154.53.128.0/24'
p1876
aS'154.56.88.0/24'
p1877
aS'154.56.96.0/22'
p1878
aS'154.56.128.0/22'
p1879
aS'154.56.144.0/22'
p1880
aS'154.56.152.0/21'
p1881
aS'154.56.192.0/24'
p1882
aS'154.56.196.0/22'
p1883
aS'154.57.2.0/24'
p1884
aS'154.57.144.0/24'
p1885
aS'154.58.0.0/21'
p1886
aS'154.58.192.0/22'
p1887
aS'154.58.196.0/22'
p1888
aS'154.64.0.0/16'
p1889
aS'154.64.192.0/21'
p1890
aS'154.64.200.0/21'
p1891
aS'154.65.32.0/21'
p1892
aS'157.145.212.0/24'
p1893
aS'157.234.208.0/24'
p1894
aS'157.234.210.0/23'
p1895
aS'157.234.212.0/24'
p1896
aS'157.234.215.0/24'
p1897
aS'157.234.222.0/23'
p1898
aS'157.234.231.0/24'
p1899
aS'157.238.154.0/24'
p1900
aS'157.238.160.0/21'
p1901
aS'157.238.178.0/24'
p1902
aS'159.246.20.0/23'
p1903
aS'159.246.22.0/24'
p1904
aS'161.82.16.0/22'
p1905
aS'161.82.20.0/22'
p1906
aS'161.82.24.0/22'
p1907
aS'161.82.28.0/22'
p1908
aS'161.82.32.0/22'
p1909
aS'161.82.36.0/22'
p1910
aS'161.82.44.0/23'
p1911
aS'161.82.46.0/23'
p1912
aS'161.82.48.0/24'
p1913
aS'161.82.52.0/22'
p1914
aS'161.82.56.0/22'
p1915
aS'161.82.60.0/22'
p1916
aS'161.82.64.0/22'
p1917
aS'161.82.68.0/22'
p1918
aS'161.82.72.0/22'
p1919
aS'162.33.32.0/21'
p1920
aS'162.216.23.0/24'
p1921
aS'162.242.118.0/24'
p1922
aS'162.244.8.0/21'
p1923
aS'162.252.43.0/24'
p1924
aS'164.68.0.0/18'
p1925
aS'164.68.64.0/19'
p1926
aS'165.254.160.0/23'
p1927
aS'165.254.170.0/24'
p1928
aS'165.254.173.0/24'
p1929
aS'165.254.176.0/24'
p1930
aS'165.254.252.0/23'
p1931
aS'165.254.254.0/24'
p1932
aS'166.108.248.0/24'
p1933
aS'166.108.253.0/24'
p1934
aS'167.141.0.0/16'
p1935
aS'168.88.120.0/24'
p1936
aS'168.143.226.0/24'
p1937
aS'168.143.236.0/24'
p1938
aS'168.238.254.0/24'
p1939
aS'173.0.6.0/23'
p1940
aS'173.246.160.0/19'
p1941
aS'174.141.128.0/20'
p1942
aS'174.141.144.0/21'
p1943
aS'177.124.128.0/24'
p1944
aS'177.124.129.0/24'
p1945
aS'177.124.131.0/24'
p1946
aS'178.239.208.0/20'
p1947
aS'179.43.16.0/20'
p1948
aS'185.8.140.0/24'
p1949
aS'185.16.220.0/22'
p1950
aS'185.20.128.0/22'
p1951
aS'185.23.52.0/22'
p1952
aS'185.33.132.0/22'
p1953
aS'185.33.192.0/22'
p1954
aS'185.37.156.0/24'
p1955
aS'185.37.157.0/24'
p1956
aS'185.49.192.0/22'
p1957
aS'188.64.32.0/21'
p1958
aS'190.105.156.0/24'
p1959
aS'190.105.157.0/24'
p1960
aS'192.1.48.0/21'
p1961
aS'192.1.247.0/24'
p1962
aS'192.70.249.0/24'
p1963
aS'192.77.171.0/24'
p1964
aS'192.77.224.0/21'
p1965
aS'192.124.118.0/24'
p1966
aS'192.133.83.0/24'
p1967
aS'192.133.120.0/24'
p1968
aS'192.135.186.0/24'
p1969
aS'192.139.118.0/24'
p1970
aS'192.139.232.0/24'
p1971
aS'192.139.237.0/24'
p1972
aS'192.156.98.0/24'
p1973
aS'192.156.241.0/24'
p1974
aS'192.157.96.0/19'
p1975
aS'192.159.32.0/23'
p1976
aS'192.159.160.0/24'
p1977
aS'192.188.131.0/24'
p1978
aS'192.197.60.0/24'
p1979
aS'192.197.250.0/23'
p1980
aS'192.199.2.0/24'
p1981
aS'192.199.4.0/24'
p1982
aS'192.204.2.0/24'
p1983
aS'192.204.178.0/23'
p1984
aS'192.204.180.0/23'
p1985
aS'192.204.182.0/24'
p1986
aS'192.206.32.0/23'
p1987
aS'192.216.144.0/21'
p1988
aS'192.217.48.0/21'
p1989
aS'192.217.56.0/24'
p1990
aS'192.217.84.0/24'
p1991
aS'192.220.128.0/20'
p1992
aS'192.223.8.0/24'
p1993
aS'192.225.96.0/20'
p1994
aS'192.232.162.0/23'
p1995
aS'192.236.72.0/22'
p1996
aS'192.240.98.0/23'
p1997
aS'192.243.24.0/24'
p1998
aS'192.243.25.0/24'
p1999
aS'192.243.26.0/24'
p2000
aS'192.243.27.0/24'
p2001
aS'192.243.28.0/24'
p2002
aS'192.243.29.0/24'
p2003
aS'192.243.30.0/24'
p2004
aS'192.245.88.0/24'
p2005
aS'192.246.0.0/16'
p2006
aS'192.246.40.0/24'
p2007
aS'193.25.172.0/24'
p2008
aS'193.29.239.0/24'
p2009
aS'193.34.32.0/22'
p2010
aS'193.53.16.0/24'
p2011
aS'193.53.17.0/24'
p2012
aS'193.53.18.0/24'
p2013
aS'193.53.19.0/24'
p2014
aS'193.53.20.0/24'
p2015
aS'193.53.21.0/24'
p2016
aS'193.57.249.0/24'
p2017
aS'193.93.200.0/22'
p2018
aS'193.96.108.0/23'
p2019
aS'193.105.197.0/24'
p2020
aS'193.107.240.0/22'
p2021
aS'193.108.179.0/24'
p2022
aS'193.148.7.0/24'
p2023
aS'193.200.214.0/24'
p2024
aS'194.0.146.0/24'
p2025
aS'194.36.22.0/24'
p2026
aS'194.107.126.0/24'
p2027
aS'195.62.74.0/23'
p2028
aS'195.170.176.0/24'
p2029
aS'195.189.178.0/24'
p2030
aS'195.191.244.0/23'
p2031
aS'195.210.48.0/23'
p2032
aS'198.8.57.0/24'
p2033
aS'198.63.7.0/24'
p2034
aS'198.63.31.0/24'
p2035
aS'198.63.183.0/24'
p2036
aS'198.63.192.0/24'
p2037
aS'198.63.199.0/24'
p2038
aS'198.63.200.0/23'
p2039
aS'198.64.170.0/23'
p2040
aS'198.65.204.0/24'
p2041
aS'198.73.190.0/24'
p2042
aS'198.77.86.0/23'
p2043
aS'198.87.15.0/24'
p2044
aS'198.87.16.0/24'
p2045
aS'198.87.49.0/24'
p2046
aS'198.92.208.0/22'
p2047
aS'198.96.1.0/24'
p2048
aS'198.100.0.0/22'
p2049
aS'198.104.198.0/24'
p2050
aS'198.107.160.0/21'
p2051
aS'198.136.234.0/24'
p2052
aS'198.138.48.0/24'
p2053
aS'198.138.230.0/24'
p2054
aS'198.139.227.0/24'
p2055
aS'198.153.16.0/22'
p2056
aS'198.153.20.0/22'
p2057
aS'198.153.24.0/24'
p2058
aS'198.153.25.0/24'
p2059
aS'198.153.26.0/24'
p2060
aS'198.154.7.0/24'
p2061
aS'198.170.218.0/24'
p2062
aS'198.172.138.0/24'
p2063
aS'198.172.227.0/24'
p2064
aS'198.172.230.0/24'
p2065
aS'198.173.13.0/24'
p2066
aS'198.173.14.0/24'
p2067
aS'198.173.25.0/24'
p2068
aS'198.173.213.0/24'
p2069
aS'198.178.139.0/24'
p2070
aS'198.178.140.0/24'
p2071
aS'198.185.178.0/23'
p2072
aS'198.185.180.0/23'
p2073
aS'198.186.242.0/24'
p2074
aS'198.186.246.0/23'
p2075
aS'198.186.248.0/22'
p2076
aS'198.186.252.0/24'
p2077
aS'198.217.31.0/24'
p2078
aS'198.242.0.0/16'
p2079
aS'198.252.172.0/23'
p2080
aS'198.252.227.0/24'
p2081
aS'198.252.228.0/24'
p2082
aS'199.4.110.0/24'
p2083
aS'199.20.54.0/24'
p2084
aS'199.29.0.0/16'
p2085
aS'199.29.65.0/24'
p2086
aS'199.29.180.0/24'
p2087
aS'199.33.161.0/24'
p2088
aS'199.38.96.0/21'
p2089
aS'199.58.12.0/24'
p2090
aS'199.68.72.0/24'
p2091
aS'199.74.211.0/24'
p2092
aS'199.85.252.0/23'
p2093
aS'199.91.240.0/21'
p2094
aS'199.97.0.0/16'
p2095
aS'199.97.228.0/24'
p2096
aS'199.98.0.0/15'
p2097
aS'199.98.0.0/18'
p2098
aS'199.98.226.0/23'
p2099
aS'199.99.96.0/24'
p2100
aS'199.99.128.0/18'
p2101
aS'199.100.0.0/16'
p2102
aS'199.103.146.0/24'
p2103
aS'199.103.168.0/24'
p2104
aS'199.111.96.0/22'
p2105
aS'199.164.26.0/24'
p2106
aS'199.167.225.0/24'
p2107
aS'199.189.132.0/24'
p2108
aS'199.195.168.0/21'
p2109
aS'199.196.169.0/24'
p2110
aS'199.196.170.0/24'
p2111
aS'199.196.189.0/24'
p2112
aS'199.196.190.0/24'
p2113
aS'199.204.140.0/22'
p2114
aS'199.206.0.0/21'
p2115
aS'199.206.8.0/23'
p2116
aS'199.212.15.0/24'
p2117
aS'199.212.84.0/23'
p2118
aS'199.212.250.0/23'
p2119
aS'199.212.252.0/23'
p2120
aS'199.212.254.0/24'
p2121
aS'199.217.139.0/24'
p2122
aS'199.217.140.0/24'
p2123
aS'199.217.153.0/24'
p2124
aS'199.230.16.0/24'
p2125
aS'199.234.244.0/22'
p2126
aS'199.239.101.0/24'
p2127
aS'199.242.204.0/24'
p2128
aS'199.246.101.0/24'
p2129
aS'199.246.153.0/24'
p2130
aS'199.246.154.0/24'
p2131
aS'199.248.30.0/24'
p2132
aS'199.253.164.0/24'
p2133
aS'200.50.231.0/24'
p2134
aS'201.218.171.0/24'
p2135
aS'201.218.172.0/24'
p2136
aS'201.218.173.0/24'
p2137
aS'204.0.6.0/24'
p2138
aS'204.0.65.0/24'
p2139
aS'204.0.75.0/24'
p2140
aS'204.0.136.0/21'
p2141
aS'204.1.171.0/24'
p2142
aS'204.4.0.0/14'
p2143
aS'204.4.23.0/24'
p2144
aS'204.4.76.0/24'
p2145
aS'204.4.77.0/24'
p2146
aS'204.5.3.0/24'
p2147
aS'204.6.0.0/18'
p2148
aS'204.7.0.0/16'
p2149
aS'204.10.120.0/22'
p2150
aS'204.29.160.0/24'
p2151
aS'204.45.0.0/24'
p2152
aS'204.45.1.0/24'
p2153
aS'204.45.2.0/24'
p2154
aS'204.45.11.0/24'
p2155
aS'204.45.12.0/24'
p2156
aS'204.45.16.0/24'
p2157
aS'204.45.18.0/24'
p2158
aS'204.45.21.0/24'
p2159
aS'204.45.22.0/24'
p2160
aS'204.45.28.0/24'
p2161
aS'204.45.33.0/24'
p2162
aS'204.45.39.0/24'
p2163
aS'204.45.41.0/24'
p2164
aS'204.45.42.0/24'
p2165
aS'204.45.46.0/24'
p2166
aS'204.45.48.0/24'
p2167
aS'204.45.49.0/24'
p2168
aS'204.45.50.0/24'
p2169
aS'204.45.52.0/24'
p2170
aS'204.45.55.0/24'
p2171
aS'204.45.56.0/24'
p2172
aS'204.45.57.0/24'
p2173
aS'204.45.58.0/24'
p2174
aS'204.45.59.0/24'
p2175
aS'204.45.60.0/24'
p2176
aS'204.45.61.0/24'
p2177
aS'204.45.63.0/24'
p2178
aS'204.45.103.0/24'
p2179
aS'204.45.105.0/24'
p2180
aS'204.45.139.0/24'
p2181
aS'204.45.207.0/24'
p2182
aS'204.45.208.0/24'
p2183
aS'204.45.211.0/24'
p2184
aS'204.45.213.0/24'
p2185
aS'204.45.216.0/24'
p2186
aS'204.45.220.0/24'
p2187
aS'204.45.227.0/24'
p2188
aS'204.45.238.0/24'
p2189
aS'204.45.244.0/24'
p2190
aS'204.45.246.0/24'
p2191
aS'204.45.248.0/24'
p2192
aS'204.45.253.0/24'
p2193
aS'204.45.254.0/24'
p2194
aS'204.56.96.0/24'
p2195
aS'204.56.98.0/24'
p2196
aS'204.56.112.0/21'
p2197
aS'204.56.122.0/23'
p2198
aS'204.56.124.0/22'
p2199
aS'204.58.148.0/22'
p2200
aS'204.62.143.0/24'
p2201
aS'204.62.206.0/24'
p2202
aS'204.77.18.0/24'
p2203
aS'204.87.32.0/23'
p2204
aS'204.87.34.0/24'
p2205
aS'204.87.41.0/24'
p2206
aS'204.87.62.0/24'
p2207
aS'204.87.151.0/24'
p2208
aS'204.107.133.0/24'
p2209
aS'204.124.100.0/22'
p2210
aS'204.137.128.0/18'
p2211
aS'204.137.192.0/19'
p2212
aS'204.137.196.0/24'
p2213
aS'204.137.208.0/24'
p2214
aS'204.137.209.0/24'
p2215
aS'204.137.210.0/24'
p2216
aS'204.137.211.0/24'
p2217
aS'204.137.212.0/24'
p2218
aS'204.137.213.0/24'
p2219
aS'204.137.214.0/24'
p2220
aS'204.137.215.0/24'
p2221
aS'204.137.216.0/24'
p2222
aS'204.137.240.0/21'
p2223
aS'204.138.124.0/24'
p2224
aS'204.138.125.0/24'
p2225
aS'204.138.127.0/24'
p2226
aS'204.141.205.0/24'
p2227
aS'204.142.130.0/23'
p2228
aS'204.142.180.0/23'
p2229
aS'204.152.156.0/24'
p2230
aS'204.157.0.0/16'
p2231
aS'204.157.3.0/24'
p2232
aS'204.157.252.0/24'
p2233
aS'204.170.16.0/24'
p2234
aS'204.170.20.0/23'
p2235
aS'204.170.221.0/24'
p2236
aS'204.170.245.0/24'
p2237
aS'204.171.48.0/22'
p2238
aS'204.187.66.0/24'
p2239
aS'204.194.96.0/21'
p2240
aS'204.197.176.0/22'
p2241
aS'204.197.180.0/23'
p2242
aS'204.201.33.0/24'
p2243
aS'204.201.63.0/24'
p2244
aS'204.202.204.0/24'
p2245
aS'204.217.0.0/16'
p2246
aS'204.227.224.0/23'
p2247
aS'204.233.235.0/24'
p2248
aS'204.240.0.0/14'
p2249
aS'204.243.172.0/22'
p2250
aS'204.243.176.0/21'
p2251
aS'204.243.181.0/24'
p2252
aS'204.243.184.0/24'
p2253
aS'204.245.188.0/24'
p2254
aS'204.247.25.0/24'
p2255
aS'204.247.138.0/23'
p2256
aS'205.137.48.0/20'
p2257
aS'205.137.49.0/24'
p2258
aS'205.146.40.0/24'
p2259
aS'205.146.68.0/24'
p2260
aS'205.146.120.0/24'
p2261
aS'205.146.140.0/22'
p2262
aS'205.164.64.0/18'
p2263
aS'205.164.128.0/17'
p2264
aS'205.166.42.0/24'
p2265
aS'205.172.24.0/22'
p2266
aS'205.198.0.0/15'
p2267
aS'205.207.69.0/24'
p2268
aS'205.207.71.0/24'
p2269
aS'205.210.230.0/23'
p2270
aS'205.211.54.0/23'
p2271
aS'205.211.56.0/22'
p2272
aS'205.211.76.0/24'
p2273
aS'205.215.0.0/18'
p2274
aS'205.215.45.0/24'
p2275
aS'205.238.23.0/24'
p2276
aS'205.244.101.0/24'
p2277
aS'205.254.160.0/19'
p2278
aS'206.0.0.0/15'
p2279
aS'206.1.2.0/24'
p2280
aS'206.2.0.0/16'
p2281
aS'206.2.76.0/24'
p2282
aS'206.3.32.0/19'
p2283
aS'206.3.40.0/24'
p2284
aS'206.3.64.0/18'
p2285
aS'206.3.128.0/17'
p2286
aS'206.3.139.0/24'
p2287
aS'206.3.160.0/19'
p2288
aS'206.3.160.0/24'
p2289
aS'206.3.161.0/24'
p2290
aS'206.3.162.0/24'
p2291
aS'206.3.163.0/24'
p2292
aS'206.3.164.0/24'
p2293
aS'206.3.165.0/24'
p2294
aS'206.3.166.0/24'
p2295
aS'206.3.167.0/24'
p2296
aS'206.3.168.0/24'
p2297
aS'206.3.169.0/24'
p2298
aS'206.3.170.0/24'
p2299
aS'206.3.171.0/24'
p2300
aS'206.3.172.0/24'
p2301
aS'206.3.173.0/24'
p2302
aS'206.3.174.0/24'
p2303
aS'206.3.175.0/24'
p2304
aS'206.3.176.0/21'
p2305
aS'206.3.176.0/24'
p2306
aS'206.3.177.0/24'
p2307
aS'206.3.178.0/24'
p2308
aS'206.3.179.0/24'
p2309
aS'206.3.180.0/24'
p2310
aS'206.3.181.0/24'
p2311
aS'206.3.182.0/24'
p2312
aS'206.3.183.0/24'
p2313
aS'206.3.184.0/22'
p2314
aS'206.3.184.0/24'
p2315
aS'206.3.185.0/24'
p2316
aS'206.3.186.0/24'
p2317
aS'206.3.187.0/24'
p2318
aS'206.3.188.0/22'
p2319
aS'206.3.188.0/24'
p2320
aS'206.3.189.0/24'
p2321
aS'206.3.190.0/24'
p2322
aS'206.3.191.0/24'
p2323
aS'206.3.224.0/20'
p2324
aS'206.3.224.0/24'
p2325
aS'206.3.225.0/24'
p2326
aS'206.3.226.0/24'
p2327
aS'206.3.227.0/24'
p2328
aS'206.3.228.0/24'
p2329
aS'206.3.229.0/24'
p2330
aS'206.3.230.0/24'
p2331
aS'206.3.231.0/24'
p2332
aS'206.3.232.0/24'
p2333
aS'206.3.233.0/24'
p2334
aS'206.3.234.0/24'
p2335
aS'206.3.235.0/24'
p2336
aS'206.3.236.0/24'
p2337
aS'206.3.237.0/24'
p2338
aS'206.3.238.0/24'
p2339
aS'206.3.239.0/24'
p2340
aS'206.3.240.0/21'
p2341
aS'206.3.240.0/24'
p2342
aS'206.3.241.0/24'
p2343
aS'206.3.242.0/24'
p2344
aS'206.3.243.0/24'
p2345
aS'206.3.244.0/24'
p2346
aS'206.3.245.0/24'
p2347
aS'206.3.246.0/24'
p2348
aS'206.3.247.0/24'
p2349
aS'206.3.248.0/22'
p2350
aS'206.3.248.0/24'
p2351
aS'206.3.249.0/24'
p2352
aS'206.3.250.0/24'
p2353
aS'206.3.251.0/24'
p2354
aS'206.3.252.0/22'
p2355
aS'206.3.252.0/23'
p2356
aS'206.3.252.0/24'
p2357
aS'206.3.253.0/24'
p2358
aS'206.3.254.0/23'
p2359
aS'206.3.254.0/24'
p2360
aS'206.3.255.0/24'
p2361
aS'206.4.0.0/14'
p2362
aS'206.6.158.0/24'
p2363
aS'206.6.159.0/24'
p2364
aS'206.7.12.0/23'
p2365
aS'206.7.158.0/24'
p2366
aS'206.14.1.0/24'
p2367
aS'206.14.42.0/24'
p2368
aS'206.14.48.0/24'
p2369
aS'206.14.49.0/24'
p2370
aS'206.14.54.0/23'
p2371
aS'206.14.73.0/24'
p2372
aS'206.14.74.0/23'
p2373
aS'206.14.220.0/22'
p2374
aS'206.42.0.0/15'
p2375
aS'206.43.129.0/24'
p2376
aS'206.54.244.0/23'
p2377
aS'206.54.248.0/23'
p2378
aS'206.62.0.0/16'
p2379
aS'206.68.116.0/22'
p2380
aS'206.69.208.0/24'
p2381
aS'206.84.0.0/15'
p2382
aS'206.85.0.0/16'
p2383
aS'206.108.1.0/24'
p2384
aS'206.119.0.0/16'
p2385
aS'206.125.48.0/22'
p2386
aS'206.125.52.0/24'
p2387
aS'206.125.56.0/23'
p2388
aS'206.125.58.0/24'
p2389
aS'206.125.60.0/22'
p2390
aS'206.144.128.0/20'
p2391
aS'206.148.0.0/15'
p2392
aS'206.183.224.0/19'
p2393
aS'206.184.16.0/24'
p2394
aS'206.184.224.0/23'
p2395
aS'206.185.0.0/16'
p2396
aS'206.185.10.0/24'
p2397
aS'206.185.11.0/24'
p2398
aS'206.185.12.0/24'
p2399
aS'206.185.24.0/24'
p2400
aS'206.208.104.0/24'
p2401
aS'206.222.45.0/24'
p2402
aS'206.232.0.0/14'
p2403
aS'206.233.94.0/24'
p2404
aS'206.234.191.0/24'
p2405
aS'206.236.0.0/15'
p2406
aS'206.238.0.0/16'
p2407
aS'206.239.24.0/24'
p2408
aS'206.239.151.0/24'
p2409
aS'206.239.189.0/24'
p2410
aS'206.249.0.0/16'
p2411
aS'206.249.72.0/24'
p2412
aS'206.249.73.0/24'
p2413
aS'206.249.74.0/24'
p2414
aS'206.249.75.0/24'
p2415
aS'206.249.76.0/24'
p2416
aS'206.249.77.0/24'
p2417
aS'206.250.0.0/16'
p2418
aS'207.7.4.0/22'
p2419
aS'207.7.16.0/23'
p2420
aS'207.7.17.0/24'
p2421
aS'207.7.56.0/21'
p2422
aS'207.20.25.0/24'
p2423
aS'207.20.26.0/24'
p2424
aS'207.20.28.0/24'
p2425
aS'207.20.30.0/24'
p2426
aS'207.20.96.0/23'
p2427
aS'207.20.118.0/24'
p2428
aS'207.20.169.0/24'
p2429
aS'207.20.175.0/24'
p2430
aS'207.21.3.0/24'
p2431
aS'207.21.4.0/24'
p2432
aS'207.21.157.0/24'
p2433
aS'207.21.167.0/24'
p2434
aS'207.21.185.0/24'
p2435
aS'207.22.77.0/24'
p2436
aS'207.31.64.0/18'
p2437
aS'207.32.116.0/24'
p2438
aS'207.32.123.0/24'
p2439
aS'207.33.40.0/24'
p2440
aS'207.33.118.0/23'
p2441
aS'207.33.120.0/22'
p2442
aS'207.33.124.0/24'
p2443
aS'207.60.0.0/16'
p2444
aS'207.60.0.0/17'
p2445
aS'207.60.128.0/17'
p2446
aS'207.67.135.0/24'
p2447
aS'207.91.97.0/24'
p2448
aS'207.97.83.0/24'
p2449
aS'207.112.140.0/22'
p2450
aS'207.112.192.0/21'
p2451
aS'207.112.204.0/22'
p2452
aS'207.112.205.0/24'
p2453
aS'207.137.78.0/23'
p2454
aS'207.142.0.0/16'
p2455
aS'207.142.131.0/24'
p2456
aS'207.150.150.0/24'
p2457
aS'207.152.64.0/24'
p2458
aS'207.152.116.0/24'
p2459
aS'207.153.64.0/18'
p2460
aS'207.153.179.0/24'
p2461
aS'207.197.128.0/23'
p2462
aS'207.198.236.0/22'
p2463
aS'207.207.160.0/19'
p2464
aS'207.227.96.0/21'
p2465
aS'207.227.148.0/22'
p2466
aS'207.227.177.0/24'
p2467
aS'207.227.192.0/21'
p2468
aS'207.230.0.0/19'
p2469
aS'207.230.1.0/24'
p2470
aS'207.254.159.0/24'
p2471
aS'208.53.133.0/24'
p2472
aS'208.53.139.0/24'
p2473
aS'208.53.149.0/24'
p2474
aS'208.53.153.0/24'
p2475
aS'208.53.154.0/24'
p2476
aS'208.53.156.0/24'
p2477
aS'208.53.157.0/24'
p2478
aS'208.53.158.0/24'
p2479
aS'208.53.159.0/24'
p2480
aS'208.53.164.0/24'
p2481
aS'208.53.166.0/24'
p2482
aS'208.53.168.0/24'
p2483
aS'208.53.174.0/24'
p2484
aS'208.53.177.0/24'
p2485
aS'208.53.178.0/24'
p2486
aS'208.53.179.0/24'
p2487
aS'208.53.180.0/24'
p2488
aS'208.53.183.0/24'
p2489
aS'208.53.190.0/24'
p2490
aS'208.67.27.0/24'
p2491
aS'208.70.36.0/22'
p2492
aS'208.72.36.0/22'
p2493
aS'208.72.192.0/24'
p2494
aS'208.72.198.0/23'
p2495
aS'208.74.224.0/22'
p2496
aS'208.86.16.0/22'
p2497
aS'208.91.91.0/24'
p2498
aS'208.94.40.0/21'
p2499
aS'209.17.96.0/20'
p2500
aS'209.39.20.0/24'
p2501
aS'209.39.26.0/24'
p2502
aS'209.39.68.0/24'
p2503
aS'209.39.224.0/24'
p2504
aS'209.40.80.0/22'
p2505
aS'209.40.84.0/24'
p2506
aS'209.40.85.0/24'
p2507
aS'209.40.86.0/23'
p2508
aS'209.40.88.0/23'
p2509
aS'209.40.90.0/23'
p2510
aS'209.40.92.0/22'
p2511
aS'209.41.192.0/18'
p2512
aS'209.61.0.0/17'
p2513
aS'209.69.32.0/24'
p2514
aS'209.69.117.0/24'
p2515
aS'209.70.182.0/24'
p2516
aS'209.70.240.0/24'
p2517
aS'209.73.140.0/24'
p2518
aS'209.90.52.0/24'
p2519
aS'209.94.0.0/19'
p2520
aS'209.100.80.0/21'
p2521
aS'209.100.104.0/21'
p2522
aS'209.100.120.0/21'
p2523
aS'209.100.156.0/22'
p2524
aS'209.100.232.0/23'
p2525
aS'209.105.164.0/24'
p2526
aS'209.107.71.0/24'
p2527
aS'209.115.0.0/17'
p2528
aS'209.115.26.0/24'
p2529
aS'209.115.91.0/24'
p2530
aS'209.139.139.0/24'
p2531
aS'209.146.0.0/17'
p2532
aS'209.146.10.0/24'
p2533
aS'209.146.14.0/24'
p2534
aS'209.146.19.0/24'
p2535
aS'209.146.29.0/24'
p2536
aS'209.146.31.0/24'
p2537
aS'209.146.83.0/24'
p2538
aS'209.146.84.0/24'
p2539
aS'209.157.99.0/24'
p2540
aS'209.160.96.0/24'
p2541
aS'209.161.79.0/24'
p2542
aS'209.189.56.0/23'
p2543
aS'209.189.82.0/24'
p2544
aS'209.217.128.0/18'
p2545
aS'209.224.30.0/23'
p2546
aS'209.224.60.0/22'
p2547
aS'209.224.192.0/21'
p2548
aS'209.224.198.0/24'
p2549
aS'209.224.238.0/23'
p2550
aS'209.227.39.0/24'
p2551
aS'209.227.48.0/24'
p2552
aS'209.227.66.0/24'
p2553
aS'209.227.78.0/23'
p2554
aS'212.20.128.0/19'
p2555
aS'212.20.142.0/24'
p2556
aS'212.23.192.0/19'
p2557
aS'213.146.160.0/19'
p2558
aS'213.146.160.0/24'
p2559
aS'213.146.165.0/24'
p2560
aS'213.146.167.0/24'
p2561
aS'213.146.176.0/22'
p2562
aS'213.146.184.0/24'
p2563
aS'213.146.186.0/23'
p2564
aS'213.146.188.0/24'
p2565
aS'213.146.189.0/24'
p2566
aS'216.28.0.0/15'
p2567
aS'216.28.9.0/24'
p2568
aS'216.29.55.0/24'
p2569
aS'216.29.200.0/24'
p2570
aS'216.29.243.0/24'
p2571
aS'216.41.128.0/19'
p2572
aS'216.44.216.0/24'
p2573
aS'216.55.80.0/20'
p2574
aS'216.55.93.0/24'
p2575
aS'216.128.69.0/24'
p2576
aS'216.152.64.0/20'
p2577
aS'216.152.144.0/20'
p2578
aS'216.165.224.0/23'
p2579
aS'216.165.226.0/23'
p2580
aS'216.165.228.0/22'
p2581
aS'216.165.232.0/21'
p2582
aS'216.165.239.0/24'
p2583
aS'216.165.240.0/24'
p2584
aS'216.165.241.0/24'
p2585
aS'216.165.242.0/23'
p2586
aS'216.165.244.0/22'
p2587
aS'216.165.248.0/21'
p2588
aS'216.168.64.0/20'
p2589
aS'216.171.112.0/23'
p2590
aS'216.171.114.0/24'
p2591
aS'216.171.115.0/24'
p2592
aS'216.171.116.0/23'
p2593
aS'216.171.120.0/23'
p2594
aS'216.177.96.0/19'
p2595
aS'216.227.5.0/24'
p2596
aS'216.227.120.0/24'
p2597
aS'216.229.128.0/20'
p2598
aS'216.229.133.0/24'
p2599
aS'216.229.136.0/23'
p2600
aS'217.9.192.0/20'
p2601
aS'217.71.112.0/20'
p2602
aS'217.71.116.0/24'
p2603
aS'217.71.124.0/24'
p2604
aS'217.71.126.0/24'
p2605
aS'217.71.127.0/24'
p2606
aS'217.168.96.0/20'
p2607
aa(lp2608
S'2.16.108.0/23'
p2609
aS'2.16.110.0/23'
p2610
aS'2.16.112.0/23'
p2611
aS'2.16.154.0/23'
p2612
aS'2.17.196.0/22'
p2613
aS'2.21.16.0/20'
p2614
aS'5.158.208.0/21'
p2615
aS'23.0.16.0/20'
p2616
aS'23.0.144.0/20'
p2617
aS'23.0.204.0/22'
p2618
aS'23.0.224.0/23'
p2619
aS'23.0.244.0/23'
p2620
aS'23.1.8.0/22'
p2621
aS'23.1.28.0/22'
p2622
aS'23.1.224.0/23'
p2623
aS'23.2.18.0/23'
p2624
aS'23.2.68.0/22'
p2625
aS'23.3.16.0/20'
p2626
aS'23.3.48.0/20'
p2627
aS'23.3.112.0/20'
p2628
aS'23.3.136.0/23'
p2629
aS'23.3.160.0/20'
p2630
aS'23.4.32.0/20'
p2631
aS'23.4.48.0/20'
p2632
aS'23.4.80.0/20'
p2633
aS'23.4.96.0/20'
p2634
aS'23.4.176.0/20'
p2635
aS'23.4.192.0/20'
p2636
aS'23.4.208.0/20'
p2637
aS'23.4.224.0/20'
p2638
aS'23.4.240.0/20'
p2639
aS'23.5.0.0/20'
p2640
aS'23.5.16.0/20'
p2641
aS'23.5.32.0/20'
p2642
aS'23.5.48.0/20'
p2643
aS'23.5.64.0/20'
p2644
aS'23.5.80.0/20'
p2645
aS'23.5.128.0/20'
p2646
aS'23.5.208.0/20'
p2647
aS'23.5.224.0/20'
p2648
aS'23.5.240.0/20'
p2649
aS'23.6.0.0/20'
p2650
aS'23.6.80.0/20'
p2651
aS'23.10.128.0/20'
p2652
aS'23.11.0.0/20'
p2653
aS'23.11.16.0/20'
p2654
aS'23.11.160.0/20'
p2655
aS'23.11.176.0/20'
p2656
aS'23.11.192.0/22'
p2657
aS'23.11.196.0/22'
p2658
aS'23.11.204.0/23'
p2659
aS'23.11.206.0/23'
p2660
aS'23.11.228.0/22'
p2661
aS'23.11.238.0/23'
p2662
aS'23.11.240.0/22'
p2663
aS'23.11.244.0/22'
p2664
aS'23.11.248.0/22'
p2665
aS'23.11.252.0/23'
p2666
aS'23.11.254.0/23'
p2667
aS'23.12.128.0/20'
p2668
aS'23.12.144.0/22'
p2669
aS'23.12.148.0/23'
p2670
aS'23.12.158.0/23'
p2671
aS'23.13.96.0/20'
p2672
aS'23.13.112.0/20'
p2673
aS'23.15.32.0/20'
p2674
aS'23.15.160.0/20'
p2675
aS'23.15.224.0/20'
p2676
aS'23.15.252.0/22'
p2677
aS'23.32.2.0/23'
p2678
aS'23.32.6.0/23'
p2679
aS'23.32.28.0/23'
p2680
aS'23.32.48.0/20'
p2681
aS'23.32.64.0/20'
p2682
aS'23.32.80.0/22'
p2683
aS'23.32.92.0/22'
p2684
aS'23.33.40.0/22'
p2685
aS'23.33.252.0/22'
p2686
aS'23.34.64.0/20'
p2687
aS'23.34.80.0/20'
p2688
aS'23.35.128.0/20'
p2689
aS'23.36.48.0/20'
p2690
aS'23.37.112.0/20'
p2691
aS'23.38.110.0/23'
p2692
aS'23.38.160.0/21'
p2693
aS'23.38.168.0/22'
p2694
aS'23.38.172.0/23'
p2695
aS'23.39.128.0/20'
p2696
aS'23.40.192.0/20'
p2697
aS'23.41.32.0/20'
p2698
aS'23.41.160.0/22'
p2699
aS'23.41.164.0/23'
p2700
aS'23.41.176.0/20'
p2701
aS'23.41.240.0/20'
p2702
aS'23.42.32.0/20'
p2703
aS'23.42.208.0/20'
p2704
aS'23.44.128.0/20'
p2705
aS'23.45.0.0/20'
p2706
aS'23.45.16.0/20'
p2707
aS'23.45.68.0/22'
p2708
aS'23.45.80.0/22'
p2709
aS'23.45.112.0/20'
p2710
aS'23.46.8.0/23'
p2711
aS'23.46.10.0/23'
p2712
aS'23.48.0.0/20'
p2713
aS'23.48.16.0/22'
p2714
aS'23.48.20.0/23'
p2715
aS'23.48.240.0/20'
p2716
aS'23.49.0.0/22'
p2717
aS'23.49.4.0/23'
p2718
aS'23.53.192.0/20'
p2719
aS'23.55.0.0/20'
p2720
aS'23.55.16.0/20'
p2721
aS'23.55.32.0/20'
p2722
aS'23.55.48.0/20'
p2723
aS'23.55.64.0/20'
p2724
aS'23.55.80.0/20'
p2725
aS'23.55.96.0/20'
p2726
aS'23.55.112.0/20'
p2727
aS'23.55.144.0/20'
p2728
aS'23.55.160.0/20'
p2729
aS'23.55.176.0/20'
p2730
aS'23.55.192.0/20'
p2731
aS'23.55.208.0/20'
p2732
aS'23.59.0.0/20'
p2733
aS'23.59.90.0/23'
p2734
aS'23.59.92.0/22'
p2735
aS'23.59.128.0/20'
p2736
aS'23.59.144.0/20'
p2737
aS'23.59.160.0/20'
p2738
aS'23.59.176.0/22'
p2739
aS'23.59.180.0/23'
p2740
aS'23.61.10.0/23'
p2741
aS'23.61.12.0/22'
p2742
aS'23.61.48.0/20'
p2743
aS'23.61.64.0/20'
p2744
aS'23.65.190.0/23'
p2745
aS'23.65.224.0/20'
p2746
aS'23.65.240.0/20'
p2747
aS'23.66.0.0/22'
p2748
aS'23.67.192.0/20'
p2749
aS'23.74.14.0/23'
p2750
aS'23.74.128.0/20'
p2751
aS'23.74.144.0/20'
p2752
aS'23.74.160.0/22'
p2753
aS'23.192.122.0/23'
p2754
aS'23.193.16.0/20'
p2755
aS'23.193.32.0/20'
p2756
aS'23.193.48.0/22'
p2757
aS'23.194.216.0/23'
p2758
aS'23.195.12.0/22'
p2759
aS'23.195.80.0/20'
p2760
aS'23.195.96.0/20'
p2761
aS'23.196.192.0/20'
p2762
aS'23.196.208.0/20'
p2763
aS'23.196.224.0/22'
p2764
aS'23.196.228.0/23'
p2765
aS'23.197.50.0/23'
p2766
aS'23.197.64.0/20'
p2767
aS'23.197.80.0/20'
p2768
aS'23.197.96.0/22'
p2769
aS'23.199.46.0/23'
p2770
aS'23.199.232.0/22'
p2771
aS'23.199.236.0/22'
p2772
aS'23.200.16.0/20'
p2773
aS'23.200.32.0/20'
p2774
aS'23.200.48.0/20'
p2775
aS'23.200.64.0/20'
p2776
aS'23.200.80.0/23'
p2777
aS'23.200.94.0/23'
p2778
aS'23.200.140.0/22'
p2779
aS'23.200.208.0/20'
p2780
aS'23.200.224.0/20'
p2781
aS'23.200.240.0/20'
p2782
aS'23.201.0.0/20'
p2783
aS'23.201.16.0/22'
p2784
aS'23.201.20.0/23'
p2785
aS'23.201.22.0/23'
p2786
aS'23.201.24.0/22'
p2787
aS'23.201.28.0/22'
p2788
aS'23.201.32.0/20'
p2789
aS'23.201.48.0/20'
p2790
aS'23.201.64.0/20'
p2791
aS'23.201.80.0/20'
p2792
aS'23.201.96.0/23'
p2793
aS'23.202.236.0/22'
p2794
aS'23.203.16.0/20'
p2795
aS'23.203.32.0/20'
p2796
aS'23.203.48.0/23'
p2797
aS'23.204.104.0/23'
p2798
aS'23.204.156.0/22'
p2799
aS'23.204.224.0/20'
p2800
aS'23.204.240.0/20'
p2801
aS'23.205.128.0/20'
p2802
aS'23.205.144.0/20'
p2803
aS'23.205.160.0/22'
p2804
aS'23.205.164.0/23'
p2805
aS'23.206.124.0/22'
p2806
aS'23.206.160.0/20'
p2807
aS'23.206.176.0/20'
p2808
aS'23.206.192.0/23'
p2809
aS'23.208.26.0/23'
p2810
aS'23.208.30.0/23'
p2811
aS'23.208.68.0/22'
p2812
aS'23.208.76.0/22'
p2813
aS'23.208.80.0/20'
p2814
aS'23.208.96.0/20'
p2815
aS'23.208.144.0/20'
p2816
aS'23.208.160.0/20'
p2817
aS'23.213.16.0/20'
p2818
aS'23.213.32.0/20'
p2819
aS'23.213.48.0/22'
p2820
aS'23.213.52.0/23'
p2821
aS'23.213.54.0/23'
p2822
aS'23.213.56.0/22'
p2823
aS'23.213.60.0/22'
p2824
aS'23.213.64.0/20'
p2825
aS'23.213.80.0/20'
p2826
aS'23.213.96.0/20'
p2827
aS'23.213.112.0/20'
p2828
aS'23.213.128.0/23'
p2829
aS'23.213.132.0/23'
p2830
aS'23.213.180.0/22'
p2831
aS'23.213.192.0/20'
p2832
aS'23.213.208.0/20'
p2833
aS'23.214.74.0/23'
p2834
aS'23.214.224.0/20'
p2835
aS'23.214.240.0/20'
p2836
aS'23.215.0.0/22'
p2837
aS'27.50.96.0/19'
p2838
aS'27.110.64.0/21'
p2839
aS'49.246.233.0/24'
p2840
aS'61.58.32.0/20'
p2841
aS'61.114.112.0/20'
p2842
aS'61.120.144.0/20'
p2843
aS'61.200.80.0/20'
p2844
aS'61.213.144.0/20'
p2845
aS'61.213.160.0/19'
p2846
aS'61.251.96.0/20'
p2847
aS'62.73.160.0/19'
p2848
aS'69.192.32.0/20'
p2849
aS'69.192.96.0/20'
p2850
aS'69.192.128.0/20'
p2851
aS'72.246.20.0/22'
p2852
aS'72.246.95.0/24'
p2853
aS'72.247.62.0/23'
p2854
aS'72.247.128.0/21'
p2855
aS'72.247.200.0/21'
p2856
aS'80.74.8.0/22'
p2857
aS'81.19.96.0/20'
p2858
aS'81.20.64.0/20'
p2859
aS'81.25.192.0/20'
p2860
aS'81.93.176.0/20'
p2861
aS'81.93.208.0/20'
p2862
aS'82.112.96.0/19'
p2863
aS'83.217.224.0/19'
p2864
aS'83.217.224.0/23'
p2865
aS'83.231.128.0/17'
p2866
aS'88.221.32.0/22'
p2867
aS'88.221.130.0/23'
p2868
aS'91.186.160.0/19'
p2869
aS'91.212.152.0/24'
p2870
aS'92.123.48.0/20'
p2871
aS'96.6.40.0/24'
p2872
aS'96.6.96.0/20'
p2873
aS'96.6.144.0/20'
p2874
aS'96.6.176.0/20'
p2875
aS'96.6.224.0/20'
p2876
aS'96.7.16.0/20'
p2877
aS'96.7.144.0/20'
p2878
aS'96.7.218.0/23'
p2879
aS'96.7.232.0/22'
p2880
aS'96.16.64.0/20'
p2881
aS'96.16.80.0/20'
p2882
aS'96.16.144.0/20'
p2883
aS'96.16.160.0/22'
p2884
aS'96.16.224.0/20'
p2885
aS'96.16.240.0/21'
p2886
aS'96.16.248.0/21'
p2887
aS'96.17.4.0/22'
p2888
aS'96.17.32.0/20'
p2889
aS'96.17.104.0/23'
p2890
aS'96.17.112.0/20'
p2891
aS'96.17.155.0/24'
p2892
aS'96.17.162.0/24'
p2893
aS'96.17.167.0/24'
p2894
aS'96.17.168.0/23'
p2895
aS'96.17.188.0/22'
p2896
aS'96.17.204.0/23'
p2897
aS'101.110.128.0/17'
p2898
aS'103.13.80.0/22'
p2899
aS'103.20.18.0/23'
p2900
aS'111.68.128.0/17'
p2901
aS'116.51.16.0/20'
p2902
aS'117.103.176.0/20'
p2903
aS'117.104.64.0/18'
p2904
aS'117.104.128.0/19'
p2905
aS'117.104.132.0/23'
p2906
aS'117.104.140.0/22'
p2907
aS'117.104.144.0/20'
p2908
aS'119.161.104.0/21'
p2909
aS'120.29.144.0/21'
p2910
aS'120.29.160.0/19'
p2911
aS'120.88.48.0/20'
p2912
aS'120.88.48.0/21'
p2913
aS'120.88.56.0/21'
p2914
aS'122.255.80.0/20'
p2915
aS'124.40.0.0/18'
p2916
aS'124.40.0.0/19'
p2917
aS'124.40.32.0/19'
p2918
aS'128.121.0.0/16'
p2919
aS'128.241.0.0/16'
p2920
aS'128.242.0.0/16'
p2921
aS'129.230.47.0/24'
p2922
aS'129.250.0.0/16'
p2923
aS'130.36.145.0/24'
p2924
aS'130.94.0.0/16'
p2925
aS'130.94.60.0/24'
p2926
aS'131.103.0.0/16'
p2927
aS'132.237.224.0/22'
p2928
aS'140.174.0.0/16'
p2929
aS'153.254.0.0/15'
p2930
aS'153.254.0.0/18'
p2931
aS'153.254.64.0/20'
p2932
aS'153.254.80.0/22'
p2933
aS'157.238.0.0/16'
p2934
aS'158.181.56.0/21'
p2935
aS'161.58.0.0/16'
p2936
aS'165.254.0.0/16'
p2937
aS'168.143.0.0/16'
p2938
aS'168.153.0.0/24'
p2939
aS'172.226.240.0/20'
p2940
aS'172.227.156.0/22'
p2941
aS'172.227.224.0/20'
p2942
aS'172.227.240.0/20'
p2943
aS'172.228.0.0/23'
p2944
aS'172.228.230.0/23'
p2945
aS'172.228.232.0/22'
p2946
aS'172.228.240.0/20'
p2947
aS'172.230.98.0/23'
p2948
aS'172.230.110.0/23'
p2949
aS'172.230.112.0/20'
p2950
aS'172.230.128.0/20'
p2951
aS'172.230.144.0/22'
p2952
aS'172.231.40.0/22'
p2953
aS'172.231.80.0/20'
p2954
aS'172.231.96.0/21'
p2955
aS'172.231.104.0/22'
p2956
aS'172.231.108.0/23'
p2957
aS'172.231.158.0/23'
p2958
aS'172.232.88.0/22'
p2959
aS'172.232.128.0/20'
p2960
aS'172.232.144.0/20'
p2961
aS'173.192.254.0/24'
p2962
aS'173.222.212.0/22'
p2963
aS'173.222.216.0/22'
p2964
aS'173.222.224.0/22'
p2965
aS'173.222.228.0/22'
p2966
aS'173.222.236.0/22'
p2967
aS'173.222.240.0/22'
p2968
aS'173.222.244.0/22'
p2969
aS'173.222.248.0/22'
p2970
aS'173.223.104.0/22'
p2971
aS'173.223.112.0/20'
p2972
aS'177.129.168.0/22'
p2973
aS'180.210.232.0/24'
p2974
aS'184.24.150.0/23'
p2975
aS'184.24.156.0/23'
p2976
aS'184.24.160.0/20'
p2977
aS'184.25.58.0/23'
p2978
aS'184.25.118.0/23'
p2979
aS'184.25.128.0/20'
p2980
aS'184.25.146.0/23'
p2981
aS'184.25.150.0/23'
p2982
aS'184.25.154.0/23'
p2983
aS'184.25.168.0/22'
p2984
aS'184.25.180.0/22'
p2985
aS'184.25.188.0/22'
p2986
aS'184.25.196.0/22'
p2987
aS'184.25.220.0/22'
p2988
aS'184.25.224.0/20'
p2989
aS'184.25.240.0/22'
p2990
aS'184.26.16.0/22'
p2991
aS'184.26.48.0/23'
p2992
aS'184.26.80.0/22'
p2993
aS'184.26.96.0/22'
p2994
aS'184.26.144.0/22'
p2995
aS'184.26.163.0/24'
p2996
aS'184.27.0.0/20'
p2997
aS'184.27.28.0/22'
p2998
aS'184.27.96.0/20'
p2999
aS'184.27.196.0/23'
p3000
aS'184.27.198.0/23'
p3001
aS'184.27.218.0/23'
p3002
aS'184.27.224.0/20'
p3003
aS'184.28.212.0/23'
p3004
aS'184.28.216.0/23'
p3005
aS'184.28.220.0/23'
p3006
aS'184.28.226.0/23'
p3007
aS'184.28.228.0/23'
p3008
aS'184.28.230.0/23'
p3009
aS'184.28.232.0/23'
p3010
aS'184.28.234.0/23'
p3011
aS'184.28.236.0/23'
p3012
aS'184.28.238.0/23'
p3013
aS'184.28.244.0/23'
p3014
aS'184.28.246.0/23'
p3015
aS'184.28.248.0/23'
p3016
aS'184.29.52.0/23'
p3017
aS'184.29.192.0/20'
p3018
aS'184.29.208.0/20'
p3019
aS'184.29.224.0/20'
p3020
aS'184.30.100.0/22'
p3021
aS'184.30.104.0/22'
p3022
aS'184.30.108.0/22'
p3023
aS'184.30.224.0/20'
p3024
aS'184.31.64.0/20'
p3025
aS'184.31.144.0/20'
p3026
aS'184.31.160.0/20'
p3027
aS'184.50.192.0/20'
p3028
aS'184.51.2.0/24'
p3029
aS'184.51.176.0/20'
p3030
aS'184.84.128.0/20'
p3031
aS'184.84.144.0/22'
p3032
aS'184.84.168.0/22'
p3033
aS'184.84.192.0/22'
p3034
aS'184.85.16.0/20'
p3035
aS'184.85.144.0/20'
p3036
aS'184.85.176.0/20'
p3037
aS'184.85.192.0/20'
p3038
aS'184.86.64.0/20'
p3039
aS'184.86.124.0/22'
p3040
aS'184.86.160.0/20'
p3041
aS'184.86.228.0/22'
p3042
aS'184.86.236.0/22'
p3043
aS'184.86.240.0/22'
p3044
aS'184.87.64.0/20'
p3045
aS'184.87.80.0/20'
p3046
aS'184.87.160.0/22'
p3047
aS'184.87.196.0/23'
p3048
aS'184.87.200.0/22'
p3049
aS'192.40.37.0/24'
p3050
aS'192.67.236.0/22'
p3051
aS'192.80.12.0/22'
p3052
aS'192.102.248.0/24'
p3053
aS'192.147.160.0/21'
p3054
aS'192.147.160.64/27'
p3055
aS'192.147.160.224/30'
p3056
aS'192.147.176.0/22'
p3057
aS'192.204.0.0/16'
p3058
aS'192.217.0.0/16'
p3059
aS'192.217.44.0/22'
p3060
aS'192.220.0.0/16'
p3061
aS'193.41.83.0/24'
p3062
aS'193.149.1.0/25'
p3063
aS'193.178.210.0/24'
p3064
aS'195.42.250.0/24'
p3065
aS'198.17.243.0/24'
p3066
aS'198.32.177.0/24'
p3067
aS'198.63.0.0/16'
p3068
aS'198.64.0.0/15'
p3069
aS'198.66.0.0/16'
p3070
aS'198.84.16.0/20'
p3071
aS'198.87.0.0/16'
p3072
aS'198.88.0.0/16'
p3073
aS'198.104.0.0/16'
p3074
aS'198.106.0.0/15'
p3075
aS'198.138.0.0/15'
p3076
aS'198.170.0.0/15'
p3077
aS'198.172.0.0/15'
p3078
aS'198.176.15.0/24'
p3079
aS'198.232.16.0/24'
p3080
aS'198.247.0.0/16'
p3081
aS'198.252.194.0/23'
p3082
aS'199.4.64.0/18'
p3083
aS'199.73.32.0/21'
p3084
aS'199.103.128.0/17'
p3085
aS'199.164.210.0/24'
p3086
aS'199.217.128.0/17'
p3087
aS'199.224.0.0/20'
p3088
aS'199.234.0.0/16'
p3089
aS'199.236.0.0/14'
p3090
aS'199.240.0.0/16'
p3091
aS'199.245.16.0/20'
p3092
aS'200.15.0.0/16'
p3093
aS'200.26.135.5/32'
p3094
aS'202.47.16.0/20'
p3095
aS'202.68.64.0/20'
p3096
aS'202.69.224.0/20'
p3097
aS'202.69.240.0/22'
p3098
aS'202.69.244.0/22'
p3099
aS'202.69.248.0/22'
p3100
aS'202.69.252.0/22'
p3101
aS'202.237.244.0/24'
p3102
aS'203.23.129.0/24'
p3103
aS'203.78.192.0/20'
p3104
aS'203.105.64.0/19'
p3105
aS'203.105.80.0/21'
p3106
aS'203.131.240.0/20'
p3107
aS'203.131.244.0/22'
p3108
aS'203.205.112.0/20'
p3109
aS'204.0.0.0/14'
p3110
aS'204.42.0.0/16'
p3111
aS'204.57.32.0/19'
p3112
aS'204.62.232.0/24'
p3113
aS'204.114.199.0/24'
p3114
aS'204.126.230.0/24'
p3115
aS'204.141.0.0/16'
p3116
aS'204.142.0.0/15'
p3117
aS'204.156.0.0/19'
p3118
aS'204.156.128.0/19'
p3119
aS'204.170.0.0/15'
p3120
aS'204.194.176.0/21'
p3121
aS'204.200.0.0/14'
p3122
aS'204.227.160.0/19'
p3123
aS'204.233.0.0/16'
p3124
aS'204.245.128.0/17'
p3125
aS'204.247.0.0/16'
p3126
aS'205.146.0.0/16'
p3127
aS'205.149.160.0/19'
p3128
aS'205.157.128.0/20'
p3129
aS'205.212.0.0/16'
p3130
aS'205.238.0.0/18'
p3131
aS'206.14.0.0/16'
p3132
aS'206.50.0.0/16'
p3133
aS'206.52.0.0/16'
p3134
aS'206.54.0.0/18'
p3135
aS'206.55.0.0/18'
p3136
aS'206.58.0.0/16'
p3137
aS'206.68.0.0/15'
p3138
aS'206.80.32.0/19'
p3139
aS'206.82.32.0/19'
p3140
aS'206.86.0.0/16'
p3141
aS'206.163.0.0/17'
p3142
aS'206.163.128.0/18'
p3143
aS'206.163.192.0/19'
p3144
aS'206.166.128.0/18'
p3145
aS'206.183.192.0/19'
p3146
aS'206.184.0.0/16'
p3147
aS'206.197.81.0/24'
p3148
aS'206.213.64.0/18'
p3149
aS'206.222.32.0/19'
p3150
aS'206.239.0.0/16'
p3151
aS'207.20.0.0/16'
p3152
aS'207.21.0.0/17'
p3153
aS'207.21.128.0/18'
p3154
aS'207.22.64.0/18'
p3155
aS'207.31.192.0/18'
p3156
aS'207.32.64.0/18'
p3157
aS'207.33.0.0/16'
p3158
aS'207.55.128.0/18'
p3159
aS'207.55.192.0/19'
p3160
aS'207.56.0.0/15'
p3161
aS'207.58.0.0/17'
p3162
aS'207.67.128.0/17'
p3163
aS'207.71.64.0/18'
p3164
aS'207.91.64.0/18'
p3165
aS'207.97.0.0/17'
p3166
aS'207.111.64.0/18'
p3167
aS'207.137.0.0/16'
p3168
aS'207.150.0.0/17'
p3169
aS'207.150.128.0/19'
p3170
aS'207.152.64.0/18'
p3171
aS'207.153.128.0/17'
p3172
aS'207.156.128.0/17'
p3173
aS'207.158.192.0/18'
p3174
aS'207.159.0.0/18'
p3175
aS'207.196.0.0/17'
p3176
aS'207.197.128.0/17'
p3177
aS'207.198.128.0/17'
p3178
aS'207.199.0.0/17'
p3179
aS'207.201.128.0/18'
p3180
aS'207.206.0.0/17'
p3181
aS'207.207.128.0/19'
p3182
aS'207.241.0.0/17'
p3183
aS'208.55.0.0/16'
p3184
aS'208.71.190.0/24'
p3185
aS'209.21.0.0/18'
p3186
aS'209.24.0.0/16'
p3187
aS'209.39.0.0/16'
p3188
aS'209.41.0.0/18'
p3189
aS'209.43.128.0/17'
p3190
aS'209.57.0.0/16'
p3191
aS'209.69.0.0/16'
p3192
aS'209.70.0.0/16'
p3193
aS'209.75.0.0/16'
p3194
aS'209.107.0.0/18'
p3195
aS'209.107.64.0/19'
p3196
aS'209.124.0.0/19'
p3197
aS'209.130.0.0/17'
p3198
aS'209.139.0.0/17'
p3199
aS'209.139.128.0/18'
p3200
aS'209.157.0.0/16'
p3201
aS'209.162.64.0/18'
p3202
aS'209.168.0.0/17'
p3203
aS'209.170.0.0/18'
p3204
aS'209.189.0.0/17'
p3205
aS'209.207.128.0/17'
p3206
aS'209.227.0.0/17'
p3207
aS'209.238.0.0/16'
p3208
aS'209.243.70.0/23'
p3209
aS'209.243.96.0/20'
p3210
aS'210.175.160.0/19'
p3211
aS'211.1.32.0/19'
p3212
aS'211.130.96.0/19'
p3213
aS'212.119.0.0/19'
p3214
aS'213.130.32.0/19'
p3215
aS'213.198.0.0/17'
p3216
aS'216.42.0.0/16'
p3217
aS'216.44.0.0/16'
p3218
aS'216.167.0.0/17'
p3219
aS'218.213.24.0/21'
p3220
aS'218.213.128.0/20'
p3221
aa(lp3222
S'2.16.0.0/23'
p3223
aS'2.16.4.0/24'
p3224
aS'2.16.5.0/24'
p3225
aS'2.16.34.0/24'
p3226
aS'2.16.41.0/24'
p3227
aS'2.16.76.0/23'
p3228
aS'2.16.78.0/23'
p3229
aS'2.16.80.0/23'
p3230
aS'2.16.82.0/23'
p3231
aS'2.16.138.0/23'
p3232
aS'2.16.158.0/24'
p3233
aS'2.16.164.0/23'
p3234
aS'2.16.174.0/23'
p3235
aS'2.16.182.0/23'
p3236
aS'2.16.184.0/23'
p3237
aS'2.16.186.0/23'
p3238
aS'2.16.188.0/23'
p3239
aS'2.16.190.0/23'
p3240
aS'2.16.208.0/24'
p3241
aS'2.16.209.0/24'
p3242
aS'2.16.210.0/24'
p3243
aS'2.16.211.0/24'
p3244
aS'2.16.212.0/22'
p3245
aS'2.17.248.0/22'
p3246
aS'2.18.144.0/20'
p3247
aS'2.18.176.0/20'
p3248
aS'2.18.224.0/22'
p3249
aS'2.18.232.0/22'
p3250
aS'2.19.192.0/20'
p3251
aS'2.20.48.0/22'
p3252
aS'2.21.32.0/20'
p3253
aS'2.21.48.0/20'
p3254
aS'2.21.160.0/20'
p3255
aS'2.21.176.0/20'
p3256
aS'2.21.192.0/20'
p3257
aS'2.21.236.0/22'
p3258
aS'2.21.241.0/24'
p3259
aS'2.22.0.0/22'
p3260
aS'2.22.8.0/22'
p3261
aS'2.22.12.0/22'
p3262
aS'2.22.24.0/22'
p3263
aS'2.22.28.0/22'
p3264
aS'2.22.49.0/24'
p3265
aS'2.22.56.0/22'
p3266
aS'2.22.63.0/24'
p3267
aS'2.22.64.0/20'
p3268
aS'2.22.80.0/20'
p3269
aS'2.22.96.0/20'
p3270
aS'2.22.128.0/20'
p3271
aS'2.22.192.0/20'
p3272
aS'2.22.208.0/20'
p3273
aS'2.22.225.0/24'
p3274
aS'2.22.231.0/24'
p3275
aS'2.22.244.0/23'
p3276
aS'2.22.246.0/23'
p3277
aS'2.22.254.0/23'
p3278
aS'2.23.64.0/20'
p3279
aS'2.23.80.0/20'
p3280
aS'2.23.96.0/20'
p3281
aS'2.23.224.0/20'
p3282
aS'2.23.240.0/20'
p3283
aS'5.133.190.0/24'
p3284
aS'23.12.0.0/20'
p3285
aS'23.12.16.0/20'
p3286
aS'23.13.240.0/20'
p3287
aS'23.14.0.0/20'
p3288
aS'23.14.192.0/20'
p3289
aS'23.32.18.0/23'
p3290
aS'23.32.20.0/23'
p3291
aS'23.32.24.0/23'
p3292
aS'23.32.26.0/23'
p3293
aS'23.32.32.0/20'
p3294
aS'23.45.152.0/22'
p3295
aS'23.45.156.0/22'
p3296
aS'23.45.176.0/20'
p3297
aS'23.45.192.0/20'
p3298
aS'23.45.228.0/22'
p3299
aS'23.45.232.0/22'
p3300
aS'23.45.240.0/20'
p3301
aS'23.51.96.0/20'
p3302
aS'23.51.112.0/20'
p3303
aS'23.51.160.0/20'
p3304
aS'23.51.176.0/20'
p3305
aS'23.51.192.0/20'
p3306
aS'23.51.208.0/20'
p3307
aS'23.51.224.0/20'
p3308
aS'23.51.240.0/20'
p3309
aS'23.52.0.0/20'
p3310
aS'23.52.16.0/20'
p3311
aS'23.58.208.0/20'
p3312
aS'23.60.72.0/22'
p3313
aS'23.60.76.0/23'
p3314
aS'23.60.80.0/20'
p3315
aS'23.60.96.0/20'
p3316
aS'23.67.39.0/24'
p3317
aS'23.67.40.0/24'
p3318
aS'23.90.192.0/18'
p3319
aS'23.192.120.0/23'
p3320
aS'23.192.172.0/22'
p3321
aS'23.192.240.0/20'
p3322
aS'23.193.0.0/20'
p3323
aS'23.197.62.0/23'
p3324
aS'23.197.248.0/22'
p3325
aS'23.198.32.0/20'
p3326
aS'23.198.48.0/20'
p3327
aS'23.205.122.0/23'
p3328
aS'23.205.174.0/23'
p3329
aS'23.205.224.0/20'
p3330
aS'23.205.240.0/20'
p3331
aS'23.206.0.0/20'
p3332
aS'23.206.10.0/23'
p3333
aS'23.206.12.0/22'
p3334
aS'23.206.48.0/20'
p3335
aS'23.206.64.0/20'
p3336
aS'23.212.180.0/22'
p3337
aS'23.212.184.0/23'
p3338
aS'23.212.208.0/20'
p3339
aS'23.212.224.0/20'
p3340
aS'23.235.48.0/20'
p3341
aS'23.252.69.0/24'
p3342
aS'23.252.73.0/24'
p3343
aS'23.252.77.0/24'
p3344
aS'23.252.78.0/24'
p3345
aS'37.58.40.0/22'
p3346
aS'46.33.64.0/19'
p3347
aS'46.33.73.0/24'
p3348
aS'63.142.0.0/20'
p3349
aS'64.5.114.0/24'
p3350
aS'64.5.115.0/24'
p3351
aS'64.5.118.0/24'
p3352
aS'64.5.119.0/24'
p3353
aS'64.5.120.0/24'
p3354
aS'64.5.121.0/24'
p3355
aS'64.5.123.0/24'
p3356
aS'64.5.124.0/24'
p3357
aS'64.5.125.0/24'
p3358
aS'64.5.126.0/24'
p3359
aS'64.5.127.0/24'
p3360
aS'65.255.39.0/24'
p3361
aS'66.181.160.0/19'
p3362
aS'66.231.64.0/20'
p3363
aS'66.232.48.0/23'
p3364
aS'67.199.192.0/19'
p3365
aS'67.199.224.0/19'
p3366
aS'69.22.174.0/24'
p3367
aS'69.160.0.0/21'
p3368
aS'69.192.6.0/24'
p3369
aS'70.39.152.0/21'
p3370
aS'70.39.174.0/23'
p3371
aS'70.40.96.0/19'
p3372
aS'72.37.144.0/22'
p3373
aS'72.246.70.0/23'
p3374
aS'74.119.45.0/24'
p3375
aS'74.119.46.0/24'
p3376
aS'77.67.0.0/17'
p3377
aS'78.24.120.0/21'
p3378
aS'83.150.211.0/24'
p3379
aS'85.195.74.0/24'
p3380
aS'88.221.82.0/24'
p3381
aS'88.221.192.0/21'
p3382
aS'88.221.200.0/21'
p3383
aS'88.221.236.0/22'
p3384
aS'89.149.128.0/18'
p3385
aS'89.167.128.0/21'
p3386
aS'92.122.48.0/24'
p3387
aS'92.122.116.0/22'
p3388
aS'92.122.232.0/21'
p3389
aS'92.122.244.0/22'
p3390
aS'92.122.248.0/22'
p3391
aS'92.122.252.0/23'
p3392
aS'92.122.254.0/23'
p3393
aS'92.123.228.0/22'
p3394
aS'93.92.16.0/22'
p3395
aS'95.100.96.0/20'
p3396
aS'95.101.120.0/22'
p3397
aS'95.101.188.0/22'
p3398
aS'95.101.208.0/20'
p3399
aS'107.150.160.0/24'
p3400
aS'107.150.161.0/24'
p3401
aS'107.150.180.0/24'
p3402
aS'107.150.181.0/24'
p3403
aS'107.150.182.0/24'
p3404
aS'107.178.48.0/20'
p3405
aS'107.182.240.0/20'
p3406
aS'109.238.128.0/20'
p3407
aS'136.228.0.0/16'
p3408
aS'138.43.0.0/16'
p3409
aS'141.136.96.0/20'
p3410
aS'162.222.95.0/24'
p3411
aS'162.248.84.0/22'
p3412
aS'162.250.32.0/21'
p3413
aS'162.253.220.0/22'
p3414
aS'172.225.164.0/23'
p3415
aS'172.225.212.0/22'
p3416
aS'172.225.224.0/20'
p3417
aS'172.225.240.0/21'
p3418
aS'172.225.248.0/22'
p3419
aS'172.225.252.0/23'
p3420
aS'172.229.50.0/23'
p3421
aS'172.229.64.0/20'
p3422
aS'172.229.80.0/20'
p3423
aS'172.229.96.0/22'
p3424
aS'173.223.54.0/24'
p3425
aS'173.223.224.0/24'
p3426
aS'173.223.225.0/24'
p3427
aS'173.241.128.0/20'
p3428
aS'173.241.136.0/22'
p3429
aS'173.241.140.0/22'
p3430
aS'178.208.160.0/24'
p3431
aS'178.208.161.0/24'
p3432
aS'178.208.162.0/24'
p3433
aS'178.208.163.0/24'
p3434
aS'178.208.164.0/24'
p3435
aS'178.208.165.0/24'
p3436
aS'178.208.166.0/24'
p3437
aS'178.208.167.0/24'
p3438
aS'178.208.168.0/24'
p3439
aS'178.208.169.0/24'
p3440
aS'178.208.170.0/24'
p3441
aS'178.208.171.0/24'
p3442
aS'178.208.172.0/24'
p3443
aS'178.208.173.0/24'
p3444
aS'178.208.174.0/24'
p3445
aS'178.208.175.0/24'
p3446
aS'178.208.176.0/24'
p3447
aS'178.208.177.0/24'
p3448
aS'178.208.178.0/24'
p3449
aS'178.208.179.0/24'
p3450
aS'178.208.180.0/24'
p3451
aS'178.208.181.0/24'
p3452
aS'178.208.182.0/24'
p3453
aS'178.208.183.0/24'
p3454
aS'178.208.184.0/24'
p3455
aS'178.208.185.0/24'
p3456
aS'178.208.186.0/24'
p3457
aS'178.208.187.0/24'
p3458
aS'178.208.188.0/24'
p3459
aS'178.208.189.0/24'
p3460
aS'178.208.190.0/24'
p3461
aS'178.208.191.0/24'
p3462
aS'183.182.80.0/22'
p3463
aS'183.182.81.0/24'
p3464
aS'184.26.165.0/24'
p3465
aS'184.27.202.0/24'
p3466
aS'184.28.74.0/24'
p3467
aS'184.28.75.0/24'
p3468
aS'184.28.80.0/24'
p3469
aS'184.28.81.0/24'
p3470
aS'184.51.121.0/24'
p3471
aS'184.51.148.0/24'
p3472
aS'184.51.149.0/24'
p3473
aS'184.164.0.0/18'
p3474
aS'190.12.224.0/20'
p3475
aS'190.92.128.0/24'
p3476
aS'190.92.129.0/24'
p3477
aS'190.92.130.0/24'
p3478
aS'190.92.131.0/24'
p3479
aS'190.92.132.0/24'
p3480
aS'190.92.133.0/24'
p3481
aS'190.92.134.0/24'
p3482
aS'190.92.135.0/24'
p3483
aS'190.92.216.0/21'
p3484
aS'190.92.224.0/21'
p3485
aS'190.92.232.0/21'
p3486
aS'190.92.240.0/21'
p3487
aS'190.92.248.0/21'
p3488
aS'190.151.58.0/24'
p3489
aS'192.43.154.0/23'
p3490
aS'192.43.154.0/24'
p3491
aS'192.43.156.0/24'
p3492
aS'192.43.157.0/24'
p3493
aS'192.43.158.0/24'
p3494
aS'192.43.159.0/24'
p3495
aS'192.43.160.0/24'
p3496
aS'192.119.48.0/20'
p3497
aS'192.161.2.224/27'
p3498
aS'192.196.192.0/20'
p3499
aS'192.209.20.0/22'
p3500
aS'192.243.64.0/20'
p3501
aS'193.93.112.0/22'
p3502
aS'194.79.36.0/22'
p3503
aS'198.49.219.0/24'
p3504
aS'198.133.210.0/24'
p3505
aS'199.168.60.0/22'
p3506
aS'199.180.163.0/24'
p3507
aS'199.229.224.0/21'
p3508
aS'200.80.80.0/20'
p3509
aS'204.19.239.0/24'
p3510
aS'204.108.29.0/24'
p3511
aS'204.108.31.0/24'
p3512
aS'204.140.76.0/24'
p3513
aS'204.152.224.0/24'
p3514
aS'205.210.171.0/24'
p3515
aS'205.210.172.0/22'
p3516
aS'206.246.93.0/24'
p3517
aS'207.199.159.0/24'
p3518
aS'207.199.190.0/24'
p3519
aS'207.246.205.0/24'
p3520
aS'208.86.20.0/24'
p3521
aS'208.86.24.0/24'
p3522
aS'208.86.25.0/24'
p3523
aS'208.86.26.0/24'
p3524
aS'208.86.27.0/24'
p3525
aS'213.200.64.0/18'
p3526
aS'213.232.122.0/24'
p3527
aS'213.232.127.0/24'
p3528
aS'213.254.192.0/18'
p3529
aS'213.254.213.0/24'
p3530
aS'213.254.227.0/24'
p3531
aS'216.25.241.0/24'
p3532
aS'216.25.243.0/24'
p3533
aS'216.25.244.0/24'
p3534
aS'216.25.249.0/24'
p3535
aS'216.25.252.0/24'
p3536
aS'216.183.208.0/21'
p3537
aS'216.185.35.0/24'
p3538
aS'216.185.58.0/24'
p3539
aS'216.221.144.0/20'
p3540
aa(lp3541
S'8.36.96.0/21'
p3542
aS'20.137.0.0/16'
p3543
aS'20.138.0.0/16'
p3544
aS'20.139.0.0/16'
p3545
aS'23.38.208.0/20'
p3546
aS'23.40.208.0/20'
p3547
aS'23.62.4.0/23'
p3548
aS'23.62.16.0/20'
p3549
aS'23.62.32.0/20'
p3550
aS'23.62.48.0/22'
p3551
aS'23.251.101.0/24'
p3552
aS'23.251.102.0/24'
p3553
aS'23.251.106.0/24'
p3554
aS'24.75.20.0/24'
p3555
aS'50.117.34.0/24'
p3556
aS'50.117.41.0/24'
p3557
aS'50.117.81.0/24'
p3558
aS'64.76.0.0/19'
p3559
aS'64.76.16.0/24'
p3560
aS'64.76.32.0/20'
p3561
aS'64.76.40.0/24'
p3562
aS'64.76.45.0/24'
p3563
aS'64.76.48.0/21'
p3564
aS'64.76.56.0/22'
p3565
aS'64.76.57.128/26'
p3566
aS'64.76.60.0/22'
p3567
aS'64.76.62.0/24'
p3568
aS'64.76.64.0/23'
p3569
aS'64.76.66.0/23'
p3570
aS'64.76.68.0/22'
p3571
aS'64.76.70.0/24'
p3572
aS'64.76.72.0/21'
p3573
aS'64.76.76.128/26'
p3574
aS'64.76.80.0/21'
p3575
aS'64.76.88.0/22'
p3576
aS'64.76.89.128/26'
p3577
aS'64.76.90.0/24'
p3578
aS'64.76.92.0/22'
p3579
aS'64.76.93.0/24'
p3580
aS'64.76.96.0/21'
p3581
aS'64.76.104.0/21'
p3582
aS'64.76.112.0/21'
p3583
aS'64.76.120.0/21'
p3584
aS'64.76.120.0/24'
p3585
aS'64.76.128.0/21'
p3586
aS'64.76.135.0/24'
p3587
aS'64.76.136.0/21'
p3588
aS'64.76.144.0/20'
p3589
aS'64.76.150.0/25'
p3590
aS'64.76.160.0/20'
p3591
aS'64.76.176.0/22'
p3592
aS'64.76.179.0/26'
p3593
aS'64.76.180.0/22'
p3594
aS'64.76.184.0/21'
p3595
aS'64.76.190.0/24'
p3596
aS'64.76.192.0/21'
p3597
aS'64.76.194.0/24'
p3598
aS'64.76.195.0/24'
p3599
aS'64.76.200.0/21'
p3600
aS'64.76.208.0/21'
p3601
aS'64.76.216.0/21'
p3602
aS'64.76.222.0/24'
p3603
aS'64.76.224.0/22'
p3604
aS'64.76.224.0/24'
p3605
aS'64.76.225.0/24'
p3606
aS'64.76.228.0/22'
p3607
aS'64.76.230.0/23'
p3608
aS'64.76.232.0/21'
p3609
aS'64.76.233.0/24'
p3610
aS'64.76.235.0/24'
p3611
aS'64.76.240.0/22'
p3612
aS'64.76.241.0/24'
p3613
aS'64.76.243.0/24'
p3614
aS'64.76.244.0/24'
p3615
aS'64.76.245.0/24'
p3616
aS'64.76.255.0/24'
p3617
aS'64.208.0.0/16'
p3618
aS'64.208.20.0/26'
p3619
aS'64.208.22.0/24'
p3620
aS'64.208.41.0/24'
p3621
aS'64.208.152.192/26'
p3622
aS'64.208.163.0/24'
p3623
aS'64.208.186.0/24'
p3624
aS'64.208.229.0/24'
p3625
aS'64.208.250.0/24'
p3626
aS'64.209.0.0/17'
p3627
aS'64.210.0.0/17'
p3628
aS'64.210.25.0/24'
p3629
aS'64.210.64.0/22'
p3630
aS'64.210.68.192/26'
p3631
aS'64.210.100.0/24'
p3632
aS'64.210.103.0/26'
p3633
aS'64.210.116.64/26'
p3634
aS'64.211.0.0/17'
p3635
aS'64.211.43.0/26'
p3636
aS'64.211.75.192/26'
p3637
aS'64.211.94.0/24'
p3638
aS'64.211.109.64/26'
p3639
aS'64.211.128.0/18'
p3640
aS'64.211.179.0/24'
p3641
aS'64.211.192.0/19'
p3642
aS'64.212.0.0/14'
p3643
aS'64.212.0.0/15'
p3644
aS'64.212.138.0/24'
p3645
aS'64.213.30.0/23'
p3646
aS'64.213.50.0/23'
p3647
aS'64.213.148.0/24'
p3648
aS'64.213.189.128/26'
p3649
aS'64.213.189.192/26'
p3650
aS'64.213.208.0/24'
p3651
aS'64.213.209.0/24'
p3652
aS'64.214.0.0/16'
p3653
aS'64.214.48.128/25'
p3654
aS'64.214.56.0/22'
p3655
aS'64.214.66.0/23'
p3656
aS'64.214.78.128/25'
p3657
aS'64.214.116.0/23'
p3658
aS'64.214.125.0/24'
p3659
aS'64.214.129.0/24'
p3660
aS'64.214.130.0/24'
p3661
aS'64.215.0.0/18'
p3662
aS'64.215.20.0/22'
p3663
aS'64.215.64.0/19'
p3664
aS'64.215.112.0/20'
p3665
aS'64.215.128.0/17'
p3666
aS'64.215.200.0/24'
p3667
aS'64.215.239.0/24'
p3668
aS'64.215.247.64/26'
p3669
aS'65.255.44.0/24'
p3670
aS'67.16.0.0/15'
p3671
aS'67.17.200.64/26'
p3672
aS'68.142.75.0/24'
p3673
aS'68.170.22.0/24'
p3674
aS'69.24.240.0/24'
p3675
aS'69.24.243.0/24'
p3676
aS'69.28.190.0/23'
p3677
aS'69.43.241.0/24'
p3678
aS'69.43.243.0/24'
p3679
aS'69.43.253.0/24'
p3680
aS'69.169.199.128/25'
p3681
aS'72.247.80.0/21'
p3682
aS'84.39.153.0/24'
p3683
aS'91.198.107.0/24'
p3684
aS'91.206.176.0/23'
p3685
aS'91.212.138.0/24'
p3686
aS'91.212.138.0/26'
p3687
aS'91.220.25.0/24'
p3688
aS'91.220.25.0/25'
p3689
aS'91.233.183.0/24'
p3690
aS'91.233.183.128/25'
p3691
aS'91.244.117.0/24'
p3692
aS'96.16.32.0/21'
p3693
aS'96.16.204.0/22'
p3694
aS'103.26.144.0/22'
p3695
aS'113.29.0.0/17'
p3696
aS'113.29.0.0/20'
p3697
aS'113.29.1.128/26'
p3698
aS'113.29.16.0/20'
p3699
aS'113.29.17.0/24'
p3700
aS'113.29.18.128/25'
p3701
aS'113.29.32.0/20'
p3702
aS'113.29.64.0/20'
p3703
aS'113.29.80.0/22'
p3704
aS'128.224.250.0/24'
p3705
aS'128.224.251.0/24'
p3706
aS'130.214.80.0/21'
p3707
aS'132.190.0.0/16'
p3708
aS'132.190.36.0/22'
p3709
aS'132.190.40.0/24'
p3710
aS'132.190.42.0/23'
p3711
aS'132.190.44.0/24'
p3712
aS'132.190.46.0/24'
p3713
aS'132.190.94.0/24'
p3714
aS'132.190.95.0/24'
p3715
aS'132.190.96.0/24'
p3716
aS'132.190.97.0/24'
p3717
aS'132.190.99.0/24'
p3718
aS'132.190.105.0/24'
p3719
aS'135.10.103.0/24'
p3720
aS'139.122.208.0/20'
p3721
aS'141.159.176.0/23'
p3722
aS'141.197.20.0/23'
p3723
aS'142.131.226.0/23'
p3724
aS'143.223.4.0/24'
p3725
aS'145.233.0.0/16'
p3726
aS'145.233.1.0/24'
p3727
aS'146.82.0.0/16'
p3728
aS'146.82.105.0/24'
p3729
aS'146.82.110.0/24'
p3730
aS'146.82.160.128/26'
p3731
aS'146.82.187.0/24'
p3732
aS'146.82.187.0/25'
p3733
aS'146.82.224.0/20'
p3734
aS'146.82.224.0/22'
p3735
aS'146.82.228.0/22'
p3736
aS'146.82.232.0/22'
p3737
aS'146.82.236.0/22'
p3738
aS'146.83.160.0/22'
p3739
aS'148.177.117.0/24'
p3740
aS'158.228.161.0/24'
p3741
aS'158.228.226.0/24'
p3742
aS'158.228.227.0/24'
p3743
aS'158.228.228.0/24'
p3744
aS'158.228.229.0/24'
p3745
aS'158.228.230.0/24'
p3746
aS'158.228.231.0/24'
p3747
aS'158.228.233.0/24'
p3748
aS'158.228.234.0/24'
p3749
aS'158.228.235.0/24'
p3750
aS'158.228.236.0/24'
p3751
aS'158.228.237.0/24'
p3752
aS'158.228.238.0/24'
p3753
aS'158.228.239.0/24'
p3754
aS'158.228.240.0/24'
p3755
aS'158.228.241.0/24'
p3756
aS'158.228.242.0/24'
p3757
aS'158.228.243.0/24'
p3758
aS'158.228.244.0/24'
p3759
aS'158.228.245.0/24'
p3760
aS'158.228.246.0/24'
p3761
aS'158.228.248.0/24'
p3762
aS'159.63.0.0/17'
p3763
aS'159.63.128.0/18'
p3764
aS'159.63.163.0/24'
p3765
aS'159.63.192.0/19'
p3766
aS'159.63.224.0/20'
p3767
aS'159.63.248.0/22'
p3768
aS'159.172.52.0/24'
p3769
aS'159.172.116.0/22'
p3770
aS'159.172.172.0/24'
p3771
aS'161.195.138.0/24'
p3772
aS'162.97.0.0/16'
p3773
aS'162.97.197.0/24'
p3774
aS'164.38.0.0/17'
p3775
aS'164.38.128.0/22'
p3776
aS'164.38.133.0/24'
p3777
aS'164.38.134.0/23'
p3778
aS'164.38.136.0/22'
p3779
aS'164.38.142.0/23'
p3780
aS'164.38.144.0/20'
p3781
aS'164.38.160.0/19'
p3782
aS'164.38.192.0/18'
p3783
aS'164.90.128.0/24'
p3784
aS'164.90.161.0/24'
p3785
aS'164.90.255.0/24'
p3786
aS'165.129.2.0/24'
p3787
aS'165.129.3.0/24'
p3788
aS'165.129.4.0/24'
p3789
aS'165.129.8.0/24'
p3790
aS'165.129.15.0/24'
p3791
aS'165.156.32.0/24'
p3792
aS'165.215.162.0/23'
p3793
aS'167.252.0.0/16'
p3794
aS'167.252.0.0/17'
p3795
aS'167.252.128.0/17'
p3796
aS'168.83.0.0/20'
p3797
aS'168.83.1.0/24'
p3798
aS'168.83.24.0/24'
p3799
aS'168.83.26.0/24'
p3800
aS'168.83.30.0/24'
p3801
aS'168.83.31.0/24'
p3802
aS'168.83.32.0/24'
p3803
aS'168.83.33.0/24'
p3804
aS'168.83.40.0/24'
p3805
aS'168.83.64.0/24'
p3806
aS'168.83.65.0/24'
p3807
aS'168.83.66.0/24'
p3808
aS'168.83.67.0/24'
p3809
aS'169.145.49.0/24'
p3810
aS'170.248.87.0/24'
p3811
aS'173.222.48.0/20'
p3812
aS'173.223.156.0/22'
p3813
aS'177.12.222.0/23'
p3814
aS'177.75.48.0/20'
p3815
aS'179.0.129.0/24'
p3816
aS'179.63.232.0/22'
p3817
aS'179.63.248.0/23'
p3818
aS'181.16.152.0/22'
p3819
aS'181.16.170.0/24'
p3820
aS'181.192.32.0/19'
p3821
aS'181.224.172.0/24'
p3822
aS'181.225.80.0/21'
p3823
aS'181.225.168.0/24'
p3824
aS'181.225.180.0/24'
p3825
aS'181.225.181.0/24'
p3826
aS'184.28.98.0/23'
p3827
aS'184.28.122.0/23'
p3828
aS'186.121.168.0/24'
p3829
aS'186.121.169.0/24'
p3830
aS'186.121.170.0/24'
p3831
aS'186.121.171.0/24'
p3832
aS'186.121.172.0/24'
p3833
aS'186.121.173.0/24'
p3834
aS'186.121.174.0/24'
p3835
aS'186.121.175.0/24'
p3836
aS'186.121.180.0/24'
p3837
aS'186.121.181.0/24'
p3838
aS'186.121.182.0/24'
p3839
aS'186.121.183.0/24'
p3840
aS'186.121.184.0/24'
p3841
aS'186.121.185.0/24'
p3842
aS'186.121.186.0/24'
p3843
aS'186.121.187.0/24'
p3844
aS'186.121.188.0/24'
p3845
aS'186.121.189.0/24'
p3846
aS'186.121.191.0/24'
p3847
aS'189.125.0.0/16'
p3848
aS'189.125.14.0/24'
p3849
aS'189.125.16.0/22'
p3850
aS'189.125.23.0/24'
p3851
aS'189.125.54.0/26'
p3852
aS'189.125.54.64/26'
p3853
aS'189.125.54.192/26'
p3854
aS'189.125.57.0/26'
p3855
aS'189.125.57.64/26'
p3856
aS'189.125.57.128/26'
p3857
aS'189.125.57.192/26'
p3858
aS'189.125.59.0/25'
p3859
aS'189.125.59.128/25'
p3860
aS'189.125.62.0/24'
p3861
aS'189.125.64.0/23'
p3862
aS'189.125.71.0/25'
p3863
aS'189.125.72.128/25'
p3864
aS'189.125.74.0/25'
p3865
aS'189.125.76.0/24'
p3866
aS'189.125.78.0/25'
p3867
aS'189.125.78.128/25'
p3868
aS'189.125.79.0/24'
p3869
aS'189.125.80.0/24'
p3870
aS'189.125.83.0/24'
p3871
aS'189.125.84.0/24'
p3872
aS'189.125.85.0/24'
p3873
aS'189.125.87.0/26'
p3874
aS'189.125.88.0/24'
p3875
aS'189.125.89.128/26'
p3876
aS'189.125.89.192/26'
p3877
aS'189.125.91.0/25'
p3878
aS'189.125.91.128/26'
p3879
aS'189.125.94.64/26'
p3880
aS'189.125.102.0/24'
p3881
aS'189.125.122.128/26'
p3882
aS'189.125.124.0/23'
p3883
aS'189.125.126.0/23'
p3884
aS'189.125.128.0/24'
p3885
aS'189.125.129.0/24'
p3886
aS'189.125.130.0/23'
p3887
aS'189.125.132.0/24'
p3888
aS'189.125.133.0/25'
p3889
aS'189.125.137.0/24'
p3890
aS'189.125.138.128/25'
p3891
aS'189.125.159.0/24'
p3892
aS'189.125.162.0/24'
p3893
aS'189.125.169.0/24'
p3894
aS'189.125.170.0/23'
p3895
aS'189.125.179.0/26'
p3896
aS'189.125.180.192/26'
p3897
aS'189.125.182.128/25'
p3898
aS'189.125.185.0/24'
p3899
aS'189.125.187.0/24'
p3900
aS'189.125.188.0/24'
p3901
aS'189.125.189.128/25'
p3902
aS'189.125.191.128/25'
p3903
aS'189.125.193.128/25'
p3904
aS'189.125.197.128/25'
p3905
aS'189.125.198.0/24'
p3906
aS'189.125.205.0/24'
p3907
aS'189.125.205.0/25'
p3908
aS'189.125.206.0/24'
p3909
aS'189.125.226.0/24'
p3910
aS'189.125.227.0/24'
p3911
aS'189.125.236.0/24'
p3912
aS'189.125.237.0/24'
p3913
aS'190.0.96.0/20'
p3914
aS'190.0.112.0/20'
p3915
aS'190.4.84.0/24'
p3916
aS'190.4.85.0/24'
p3917
aS'190.4.86.0/24'
p3918
aS'190.4.87.0/24'
p3919
aS'190.5.13.0/24'
p3920
aS'190.5.14.0/24'
p3921
aS'190.5.15.0/24'
p3922
aS'190.5.16.0/24'
p3923
aS'190.5.20.0/24'
p3924
aS'190.5.21.0/24'
p3925
aS'190.5.26.0/24'
p3926
aS'190.8.168.0/22'
p3927
aS'190.52.206.0/24'
p3928
aS'190.93.48.0/20'
p3929
aS'190.107.81.0/24'
p3930
aS'190.107.83.0/24'
p3931
aS'190.108.216.0/22'
p3932
aS'190.111.112.0/24'
p3933
aS'190.111.113.0/24'
p3934
aS'190.111.120.0/22'
p3935
aS'190.114.64.0/20'
p3936
aS'190.114.80.0/20'
p3937
aS'190.115.112.0/20'
p3938
aS'190.123.240.0/24'
p3939
aS'190.123.247.0/24'
p3940
aS'190.123.248.0/24'
p3941
aS'190.124.60.0/24'
p3942
aS'190.124.61.0/24'
p3943
aS'190.124.62.0/24'
p3944
aS'190.124.63.0/24'
p3945
aS'190.216.0.0/18'
p3946
aS'190.216.10.0/24'
p3947
aS'190.216.11.0/24'
p3948
aS'190.216.15.128/25'
p3949
aS'190.216.28.64/26'
p3950
aS'190.216.32.0/24'
p3951
aS'190.216.37.64/26'
p3952
aS'190.216.39.0/24'
p3953
aS'190.216.47.0/24'
p3954
aS'190.216.52.0/24'
p3955
aS'190.216.57.0/24'
p3956
aS'190.216.58.0/24'
p3957
aS'190.216.59.0/24'
p3958
aS'190.216.63.0/24'
p3959
aS'190.216.64.0/19'
p3960
aS'190.216.71.0/26'
p3961
aS'190.216.96.0/20'
p3962
aS'190.216.112.0/20'
p3963
aS'190.216.128.0/20'
p3964
aS'190.216.137.0/26'
p3965
aS'190.216.144.0/21'
p3966
aS'190.216.152.0/21'
p3967
aS'190.216.160.0/19'
p3968
aS'190.216.168.128/25'
p3969
aS'190.216.169.0/24'
p3970
aS'190.216.179.192/26'
p3971
aS'190.216.180.0/25'
p3972
aS'190.216.180.128/25'
p3973
aS'190.216.181.0/24'
p3974
aS'190.216.182.0/26'
p3975
aS'190.216.182.64/26'
p3976
aS'190.216.182.128/26'
p3977
aS'190.216.185.0/24'
p3978
aS'190.216.186.0/24'
p3979
aS'190.216.192.0/20'
p3980
aS'190.216.203.0/25'
p3981
aS'190.216.203.128/25'
p3982
aS'190.216.208.0/20'
p3983
aS'190.216.224.0/19'
p3984
aS'190.216.225.128/26'
p3985
aS'190.216.226.0/24'
p3986
aS'190.216.227.0/24'
p3987
aS'190.216.237.0/24'
p3988
aS'190.216.240.0/24'
p3989
aS'190.216.241.0/24'
p3990
aS'190.216.244.0/24'
p3991
aS'190.216.245.0/24'
p3992
aS'190.216.249.0/24'
p3993
aS'190.216.250.0/24'
p3994
aS'190.216.251.0/24'
p3995
aS'190.216.252.0/24'
p3996
aS'190.216.253.0/24'
p3997
aS'190.216.254.0/24'
p3998
aS'191.97.16.0/24'
p3999
aS'191.97.17.0/24'
p4000
aS'191.97.18.0/24'
p4001
aS'191.97.19.0/24'
p4002
aS'192.54.47.0/24'
p4003
aS'192.68.151.0/24'
p4004
aS'192.68.152.0/24'
p4005
aS'192.84.64.0/24'
p4006
aS'192.84.68.0/24'
p4007
aS'192.88.166.0/24'
p4008
aS'192.93.164.0/24'
p4009
aS'192.93.165.0/24'
p4010
aS'192.101.99.0/24'
p4011
aS'192.160.109.0/24'
p4012
aS'192.188.45.0/24'
p4013
aS'192.188.55.0/24'
p4014
aS'192.188.58.0/24'
p4015
aS'192.221.93.0/24'
p4016
aS'192.237.32.0/19'
p4017
aS'193.9.0.0/24'
p4018
aS'193.240.0.0/16'
p4019
aS'193.240.1.128/26'
p4020
aS'193.240.4.0/23'
p4021
aS'193.240.4.0/24'
p4022
aS'193.240.6.0/23'
p4023
aS'193.240.6.0/24'
p4024
aS'193.240.14.128/26'
p4025
aS'193.240.15.0/24'
p4026
aS'193.240.16.192/26'
p4027
aS'193.240.22.0/24'
p4028
aS'193.240.25.128/25'
p4029
aS'193.240.31.128/25'
p4030
aS'193.240.34.0/24'
p4031
aS'193.240.36.0/24'
p4032
aS'193.240.37.0/24'
p4033
aS'193.240.114.0/24'
p4034
aS'193.240.116.0/25'
p4035
aS'193.240.121.0/24'
p4036
aS'194.34.56.0/24'
p4037
aS'194.34.56.0/25'
p4038
aS'194.34.56.128/26'
p4039
aS'194.146.51.0/24'
p4040
aS'195.50.78.0/23'
p4041
aS'195.110.10.0/24'
p4042
aS'195.110.11.0/24'
p4043
aS'195.110.11.128/25'
p4044
aS'195.166.0.0/17'
p4045
aS'195.166.81.64/26'
p4046
aS'195.166.102.0/26'
p4047
aS'195.166.102.64/26'
p4048
aS'195.242.122.0/23'
p4049
aS'198.62.75.0/24'
p4050
aS'198.136.182.0/24'
p4051
aS'198.184.225.0/24'
p4052
aS'198.202.138.0/24'
p4053
aS'198.203.193.0/24'
p4054
aS'198.211.64.0/24'
p4055
aS'199.76.0.0/17'
p4056
aS'199.164.25.0/24'
p4057
aS'199.167.248.0/22'
p4058
aS'199.167.250.0/23'
p4059
aS'199.182.246.0/23'
p4060
aS'199.232.48.0/22'
p4061
aS'199.232.52.0/24'
p4062
aS'199.245.32.0/24'
p4063
aS'199.248.171.0/24'
p4064
aS'199.254.216.0/24'
p4065
aS'200.0.126.0/24'
p4066
aS'200.0.184.0/24'
p4067
aS'200.0.194.0/23'
p4068
aS'200.0.196.0/23'
p4069
aS'200.1.64.0/24'
p4070
aS'200.1.66.0/24'
p4071
aS'200.1.73.0/24'
p4072
aS'200.1.81.0/24'
p4073
aS'200.1.87.0/24'
p4074
aS'200.1.88.0/24'
p4075
aS'200.1.89.0/24'
p4076
aS'200.1.95.0/24'
p4077
aS'200.1.103.0/24'
p4078
aS'200.1.224.0/19'
p4079
aS'200.3.113.0/24'
p4080
aS'200.5.167.0/24'
p4081
aS'200.6.22.0/24'
p4082
aS'200.9.72.0/24'
p4083
aS'200.9.80.0/24'
p4084
aS'200.9.237.0/24'
p4085
aS'200.9.242.0/23'
p4086
aS'200.9.244.0/23'
p4087
aS'200.10.131.0/24'
p4088
aS'200.10.161.0/24'
p4089
aS'200.10.170.0/24'
p4090
aS'200.10.255.0/24'
p4091
aS'200.10.255.64/26'
p4092
aS'200.10.255.128/26'
p4093
aS'200.11.112.0/21'
p4094
aS'200.14.34.0/24'
p4095
aS'200.16.4.0/24'
p4096
aS'200.16.5.0/24'
p4097
aS'200.16.6.0/24'
p4098
aS'200.16.7.0/24'
p4099
aS'200.16.79.0/25'
p4100
aS'200.31.0.0/24'
p4101
aS'200.31.1.0/24'
p4102
aS'200.31.2.0/23'
p4103
aS'200.31.2.0/26'
p4104
aS'200.31.4.0/23'
p4105
aS'200.31.6.0/24'
p4106
aS'200.31.7.0/24'
p4107
aS'200.31.8.0/23'
p4108
aS'200.31.10.0/24'
p4109
aS'200.31.11.0/24'
p4110
aS'200.31.12.0/22'
p4111
aS'200.31.16.0/20'
p4112
aS'200.31.16.0/21'
p4113
aS'200.31.19.0/25'
p4114
aS'200.31.24.0/21'
p4115
aS'200.32.64.0/24'
p4116
aS'200.32.68.0/22'
p4117
aS'200.32.72.0/23'
p4118
aS'200.32.74.0/24'
p4119
aS'200.32.76.0/23'
p4120
aS'200.32.76.0/24'
p4121
aS'200.32.77.0/24'
p4122
aS'200.32.79.0/24'
p4123
aS'200.32.80.0/22'
p4124
aS'200.32.84.0/22'
p4125
aS'200.32.88.0/21'
p4126
aS'200.32.96.0/19'
p4127
aS'200.32.110.64/26'
p4128
aS'200.32.114.0/24'
p4129
aS'200.32.118.0/26'
p4130
aS'200.41.0.0/22'
p4131
aS'200.41.4.0/22'
p4132
aS'200.41.6.0/24'
p4133
aS'200.41.8.0/24'
p4134
aS'200.41.9.0/24'
p4135
aS'200.41.10.0/23'
p4136
aS'200.41.12.0/23'
p4137
aS'200.41.14.0/23'
p4138
aS'200.41.16.0/20'
p4139
aS'200.41.18.0/26'
p4140
aS'200.41.18.192/26'
p4141
aS'200.41.23.0/26'
p4142
aS'200.41.27.0/25'
p4143
aS'200.41.32.0/20'
p4144
aS'200.41.33.128/25'
p4145
aS'200.41.34.0/24'
p4146
aS'200.41.35.0/24'
p4147
aS'200.41.36.0/24'
p4148
aS'200.41.37.0/24'
p4149
aS'200.41.48.0/24'
p4150
aS'200.41.49.0/24'
p4151
aS'200.41.51.0/24'
p4152
aS'200.41.52.0/23'
p4153
aS'200.41.52.0/26'
p4154
aS'200.41.53.0/24'
p4155
aS'200.41.54.0/23'
p4156
aS'200.41.56.0/23'
p4157
aS'200.41.58.0/23'
p4158
aS'200.41.60.0/22'
p4159
aS'200.41.64.0/21'
p4160
aS'200.41.72.0/22'
p4161
aS'200.41.76.0/22'
p4162
aS'200.41.77.0/26'
p4163
aS'200.41.80.0/22'
p4164
aS'200.41.80.0/24'
p4165
aS'200.41.81.0/26'
p4166
aS'200.41.84.0/22'
p4167
aS'200.41.88.0/24'
p4168
aS'200.41.90.0/23'
p4169
aS'200.41.92.0/24'
p4170
aS'200.41.93.0/24'
p4171
aS'200.41.94.0/23'
p4172
aS'200.41.96.0/20'
p4173
aS'200.41.112.0/23'
p4174
aS'200.41.114.0/24'
p4175
aS'200.41.115.0/24'
p4176
aS'200.41.116.0/22'
p4177
aS'200.41.117.0/24'
p4178
aS'200.41.120.0/21'
p4179
aS'200.49.0.0/20'
p4180
aS'200.55.0.0/18'
p4181
aS'200.55.6.0/24'
p4182
aS'200.55.24.0/25'
p4183
aS'200.55.31.128/26'
p4184
aS'200.55.43.128/25'
p4185
aS'200.55.63.0/24'
p4186
aS'200.59.185.0/24'
p4187
aS'200.59.186.0/24'
p4188
aS'200.59.187.0/24'
p4189
aS'200.59.188.0/24'
p4190
aS'200.59.189.0/24'
p4191
aS'200.59.190.0/24'
p4192
aS'200.59.191.0/24'
p4193
aS'200.91.60.0/22'
p4194
aS'200.115.48.0/20'
p4195
aS'200.115.178.0/24'
p4196
aS'200.123.216.0/24'
p4197
aS'200.123.217.0/24'
p4198
aS'200.123.218.0/24'
p4199
aS'200.123.219.0/24'
p4200
aS'200.123.220.0/24'
p4201
aS'200.123.221.0/24'
p4202
aS'200.123.222.0/24'
p4203
aS'200.123.223.0/24'
p4204
aS'200.186.0.0/16'
p4205
aS'200.186.39.0/24'
p4206
aS'200.186.44.0/24'
p4207
aS'200.186.45.0/24'
p4208
aS'200.186.46.0/24'
p4209
aS'200.186.47.0/24'
p4210
aS'200.186.76.0/24'
p4211
aS'200.186.77.0/24'
p4212
aS'200.186.77.128/26'
p4213
aS'200.186.77.192/26'
p4214
aS'200.186.88.0/24'
p4215
aS'200.186.89.0/24'
p4216
aS'200.186.90.0/24'
p4217
aS'200.186.91.0/24'
p4218
aS'200.186.92.0/24'
p4219
aS'200.186.93.0/24'
p4220
aS'200.186.94.0/24'
p4221
aS'200.186.94.64/26'
p4222
aS'200.186.95.0/24'
p4223
aS'200.186.101.0/24'
p4224
aS'200.186.103.0/24'
p4225
aS'200.186.103.128/25'
p4226
aS'200.186.109.0/24'
p4227
aS'200.186.113.0/24'
p4228
aS'200.186.123.0/24'
p4229
aS'200.186.124.0/24'
p4230
aS'200.186.125.0/24'
p4231
aS'200.186.125.64/26'
p4232
aS'200.186.126.0/24'
p4233
aS'200.186.127.0/24'
p4234
aS'200.186.133.0/24'
p4235
aS'200.186.140.0/24'
p4236
aS'200.186.145.128/25'
p4237
aS'200.186.149.0/24'
p4238
aS'200.186.150.0/24'
p4239
aS'200.186.154.0/24'
p4240
aS'200.186.154.64/26'
p4241
aS'200.186.155.0/24'
p4242
aS'200.186.155.64/26'
p4243
aS'200.186.155.128/26'
p4244
aS'200.186.155.192/26'
p4245
aS'200.186.156.0/24'
p4246
aS'200.186.161.0/24'
p4247
aS'200.186.163.0/24'
p4248
aS'200.186.179.0/24'
p4249
aS'200.186.180.0/24'
p4250
aS'200.186.192.0/24'
p4251
aS'200.186.192.0/26'
p4252
aS'200.186.192.64/26'
p4253
aS'200.186.201.0/24'
p4254
aS'200.186.202.0/24'
p4255
aS'200.186.203.0/24'
p4256
aS'200.186.205.0/24'
p4257
aS'200.186.212.0/24'
p4258
aS'200.186.217.0/24'
p4259
aS'200.186.218.0/24'
p4260
aS'200.186.223.128/25'
p4261
aS'200.186.238.0/25'
p4262
aS'200.186.239.0/24'
p4263
aS'200.186.240.0/24'
p4264
aS'200.186.242.0/24'
p4265
aS'200.186.242.64/26'
p4266
aS'200.186.242.128/25'
p4267
aS'200.186.245.0/24'
p4268
aS'200.186.245.0/25'
p4269
aS'200.186.245.128/25'
p4270
aS'200.186.246.0/24'
p4271
aS'200.186.247.0/24'
p4272
aS'200.186.250.0/24'
p4273
aS'200.186.252.0/24'
p4274
aS'200.189.192.0/18'
p4275
aS'200.189.192.0/24'
p4276
aS'200.189.193.0/24'
p4277
aS'200.189.214.0/24'
p4278
aS'200.189.215.0/24'
p4279
aS'200.189.217.0/24'
p4280
aS'200.189.218.0/24'
p4281
aS'200.189.219.0/24'
p4282
aS'200.189.220.0/24'
p4283
aS'200.189.221.0/24'
p4284
aS'200.189.222.0/24'
p4285
aS'200.189.227.0/24'
p4286
aS'200.189.233.0/24'
p4287
aS'200.189.247.0/24'
p4288
aS'200.189.254.0/24'
p4289
aS'200.194.192.0/19'
p4290
aS'200.194.197.0/24'
p4291
aS'200.194.198.0/24'
p4292
aS'200.194.207.0/24'
p4293
aS'200.194.214.0/24'
p4294
aS'200.194.215.0/24'
p4295
aS'200.194.222.0/24'
p4296
aS'200.194.223.0/24'
p4297
aS'200.196.64.0/19'
p4298
aS'200.196.66.0/24'
p4299
aS'200.196.71.0/24'
p4300
aS'200.196.82.0/24'
p4301
aS'200.196.83.0/24'
p4302
aS'200.196.84.0/24'
p4303
aS'200.196.90.0/24'
p4304
aS'200.196.90.128/26'
p4305
aS'200.196.92.0/24'
p4306
aS'200.196.93.0/24'
p4307
aS'200.196.94.0/26'
p4308
aS'201.46.8.0/22'
p4309
aS'201.234.0.0/19'
p4310
aS'201.234.16.0/26'
p4311
aS'201.234.16.128/26'
p4312
aS'201.234.19.0/24'
p4313
aS'201.234.21.0/25'
p4314
aS'201.234.23.0/24'
p4315
aS'201.234.29.128/25'
p4316
aS'201.234.31.0/24'
p4317
aS'201.234.32.0/20'
p4318
aS'201.234.35.0/24'
p4319
aS'201.234.39.0/24'
p4320
aS'201.234.44.0/24'
p4321
aS'201.234.48.0/20'
p4322
aS'201.234.64.0/20'
p4323
aS'201.234.71.0/24'
p4324
aS'201.234.80.0/21'
p4325
aS'201.234.85.0/24'
p4326
aS'201.234.88.0/21'
p4327
aS'201.234.89.0/24'
p4328
aS'201.234.96.0/20'
p4329
aS'201.234.96.0/24'
p4330
aS'201.234.97.0/24'
p4331
aS'201.234.98.0/24'
p4332
aS'201.234.101.0/24'
p4333
aS'201.234.112.0/20'
p4334
aS'201.234.127.0/24'
p4335
aS'201.234.128.0/19'
p4336
aS'201.234.133.0/24'
p4337
aS'201.234.140.128/25'
p4338
aS'201.234.150.128/25'
p4339
aS'201.234.160.0/20'
p4340
aS'201.234.160.0/24'
p4341
aS'201.234.163.0/24'
p4342
aS'201.234.167.0/24'
p4343
aS'201.234.176.0/20'
p4344
aS'201.234.180.0/26'
p4345
aS'201.234.181.0/24'
p4346
aS'201.234.192.0/19'
p4347
aS'201.234.198.0/25'
p4348
aS'201.234.201.0/24'
p4349
aS'201.234.213.128/26'
p4350
aS'201.234.216.0/24'
p4351
aS'201.234.224.0/20'
p4352
aS'201.234.224.0/24'
p4353
aS'201.234.224.128/25'
p4354
aS'201.234.227.0/24'
p4355
aS'201.234.235.0/24'
p4356
aS'201.234.239.0/24'
p4357
aS'201.234.240.0/21'
p4358
aS'201.234.243.0/24'
p4359
aS'201.234.248.0/21'
p4360
aS'201.234.252.128/25'
p4361
aS'204.28.29.0/24'
p4362
aS'204.33.88.0/23'
p4363
aS'204.89.54.0/24'
p4364
aS'204.128.220.0/24'
p4365
aS'204.245.0.0/18'
p4366
aS'204.245.9.0/24'
p4367
aS'204.245.22.64/26'
p4368
aS'204.246.192.0/18'
p4369
aS'204.246.238.192/26'
p4370
aS'205.157.65.0/24'
p4371
aS'205.174.17.0/24'
p4372
aS'205.214.18.0/24'
p4373
aS'205.214.19.0/24'
p4374
aS'206.41.0.0/19'
p4375
aS'206.41.27.0/24'
p4376
aS'206.57.0.0/17'
p4377
aS'206.132.64.0/18'
p4378
aS'206.132.97.0/25'
p4379
aS'206.132.97.128/25'
p4380
aS'206.132.109.0/24'
p4381
aS'206.132.192.0/18'
p4382
aS'206.132.223.0/24'
p4383
aS'206.165.0.0/16'
p4384
aS'206.165.69.64/26'
p4385
aS'206.165.106.0/24'
p4386
aS'206.165.164.128/25'
p4387
aS'206.165.177.64/26'
p4388
aS'206.201.224.0/24'
p4389
aS'207.92.138.0/24'
p4390
aS'207.136.160.0/19'
p4391
aS'207.136.177.0/24'
p4392
aS'207.136.177.0/25'
p4393
aS'207.136.177.128/25'
p4394
aS'207.138.0.0/16'
p4395
aS'207.138.25.0/24'
p4396
aS'207.138.141.0/24'
p4397
aS'207.138.251.0/25'
p4398
aS'207.218.0.0/17'
p4399
aS'207.218.103.0/24'
p4400
aS'207.218.108.0/23'
p4401
aS'207.218.128.0/18'
p4402
aS'207.220.121.0/24'
p4403
aS'208.48.0.0/18'
p4404
aS'208.48.10.0/24'
p4405
aS'208.48.11.0/24'
p4406
aS'208.48.128.0/18'
p4407
aS'208.48.191.64/26'
p4408
aS'208.48.192.0/20'
p4409
aS'208.48.224.0/19'
p4410
aS'208.49.0.0/16'
p4411
aS'208.50.0.0/17'
p4412
aS'208.50.13.52/30'
p4413
aS'208.50.60.0/24'
p4414
aS'208.50.118.0/24'
p4415
aS'208.50.192.0/18'
p4416
aS'208.50.224.0/24'
p4417
aS'208.51.0.0/16'
p4418
aS'208.51.44.64/26'
p4419
aS'208.51.45.64/26'
p4420
aS'208.51.92.0/24'
p4421
aS'208.51.199.192/26'
p4422
aS'208.51.210.0/25'
p4423
aS'208.51.215.0/25'
p4424
aS'208.54.114.128/25'
p4425
aS'208.64.43.0/24'
p4426
aS'208.86.112.0/24'
p4427
aS'208.86.112.128/25'
p4428
aS'208.178.0.0/16'
p4429
aS'208.178.23.0/24'
p4430
aS'209.130.128.0/18'
p4431
aS'209.130.192.0/19'
p4432
aS'209.177.88.0/24'
p4433
aS'209.177.89.0/24'
p4434
aS'209.177.90.0/24'
p4435
aS'209.177.91.0/24'
p4436
aS'209.245.91.0/24'
p4437
aS'212.187.228.0/24'
p4438
aS'217.10.48.0/24'
p4439
aS'217.156.128.0/17'
p4440
aS'217.156.145.0/26'
p4441
aS'217.156.146.0/24'
p4442
aS'217.156.149.0/24'
p4443
aS'217.156.151.0/24'
p4444
aS'217.156.157.192/26'
p4445
aS'217.156.170.128/26'
p4446
aS'217.156.170.192/26'
p4447
aS'217.156.174.0/24'
p4448
aS'217.156.182.64/26'
p4449
aS'217.156.183.0/25'
p4450
aS'217.156.183.128/25'
p4451
aS'217.156.184.0/24'
p4452
aS'217.156.185.0/24'
p4453
aS'217.156.186.0/24'
p4454
aS'217.156.187.0/24'
p4455
aS'217.156.188.0/24'
p4456
aS'217.156.189.0/24'
p4457
aS'217.156.190.0/24'
p4458
aS'217.156.192.0/24'
p4459
aS'217.156.193.0/24'
p4460
aS'217.156.194.0/24'
p4461
aS'217.156.195.0/24'
p4462
aS'217.156.196.128/25'
p4463
aS'217.156.200.128/25'
p4464
aS'217.156.203.128/26'
p4465
aS'217.156.204.64/26'
p4466
aS'217.156.210.192/26'
p4467
aS'217.156.214.192/26'
p4468
aS'217.156.219.0/26'
p4469
aS'217.156.220.192/26'
p4470
aS'217.156.223.0/24'
p4471
aS'217.156.225.0/24'
p4472
aS'217.156.232.192/26'
p4473
aS'217.156.233.0/24'
p4474
aS'217.156.233.0/26'
p4475
aS'217.156.254.192/26'
p4476
aa(lp4477
S'23.0.254.0/23'
p4478
aS'23.1.32.0/22'
p4479
aS'23.1.96.0/20'
p4480
aS'23.2.8.0/23'
p4481
aS'23.2.40.0/22'
p4482
aS'23.2.144.0/20'
p4483
aS'23.35.224.0/20'
p4484
aS'23.39.144.0/20'
p4485
aS'23.39.176.0/20'
p4486
aS'23.40.96.0/20'
p4487
aS'23.41.166.0/23'
p4488
aS'23.41.168.0/22'
p4489
aS'23.192.0.0/20'
p4490
aS'23.192.16.0/20'
p4491
aS'23.192.32.0/22'
p4492
aS'23.192.36.0/23'
p4493
aS'23.192.38.0/23'
p4494
aS'23.192.40.0/22'
p4495
aS'23.192.48.0/20'
p4496
aS'23.192.64.0/20'
p4497
aS'23.237.0.0/16'
p4498
aS'24.224.36.0/23'
p4499
aS'24.224.44.0/24'
p4500
aS'24.224.57.0/24'
p4501
aS'24.224.58.0/23'
p4502
aS'24.224.60.0/23'
p4503
aS'24.224.63.0/24'
p4504
aS'50.7.0.0/16'
p4505
aS'50.7.4.0/24'
p4506
aS'50.7.5.0/24'
p4507
aS'50.7.6.0/24'
p4508
aS'50.7.7.0/24'
p4509
aS'50.7.28.0/24'
p4510
aS'50.7.29.0/24'
p4511
aS'50.7.30.0/24'
p4512
aS'50.7.31.0/24'
p4513
aS'50.7.32.0/24'
p4514
aS'50.7.33.0/24'
p4515
aS'50.7.34.0/24'
p4516
aS'50.7.35.0/24'
p4517
aS'50.7.68.0/22'
p4518
aS'50.7.72.0/22'
p4519
aS'50.7.76.0/22'
p4520
aS'50.7.80.0/22'
p4521
aS'50.7.96.0/22'
p4522
aS'50.7.100.0/22'
p4523
aS'50.7.104.0/22'
p4524
aS'50.7.108.0/22'
p4525
aS'50.7.140.0/22'
p4526
aS'50.7.156.0/22'
p4527
aS'50.7.164.0/22'
p4528
aS'50.7.176.0/22'
p4529
aS'50.7.186.0/24'
p4530
aS'50.7.187.0/24'
p4531
aS'50.7.188.0/22'
p4532
aS'64.124.0.0/15'
p4533
aS'66.90.64.0/18'
p4534
aS'66.90.64.0/24'
p4535
aS'66.90.65.0/24'
p4536
aS'66.90.66.0/24'
p4537
aS'66.90.68.0/24'
p4538
aS'66.90.69.0/24'
p4539
aS'66.90.70.0/24'
p4540
aS'66.90.71.0/24'
p4541
aS'66.90.72.0/24'
p4542
aS'66.90.73.0/24'
p4543
aS'66.90.74.0/24'
p4544
aS'66.90.75.0/24'
p4545
aS'66.90.76.0/24'
p4546
aS'66.90.77.0/24'
p4547
aS'66.90.78.0/24'
p4548
aS'66.90.79.0/24'
p4549
aS'66.90.80.0/24'
p4550
aS'66.90.81.0/24'
p4551
aS'66.90.92.0/24'
p4552
aS'66.90.93.0/24'
p4553
aS'66.90.94.0/24'
p4554
aS'66.90.100.0/24'
p4555
aS'66.90.101.0/24'
p4556
aS'66.90.102.0/24'
p4557
aS'66.90.103.0/24'
p4558
aS'66.90.104.0/24'
p4559
aS'66.90.105.0/24'
p4560
aS'66.90.110.0/24'
p4561
aS'66.90.112.0/24'
p4562
aS'66.90.113.0/24'
p4563
aS'66.90.126.0/24'
p4564
aS'66.90.127.0/24'
p4565
aS'66.213.143.0/24'
p4566
aS'66.219.64.0/19'
p4567
aS'67.159.0.0/18'
p4568
aS'67.159.2.0/24'
p4569
aS'67.159.3.0/24'
p4570
aS'67.159.4.0/24'
p4571
aS'67.159.5.0/24'
p4572
aS'67.159.6.0/24'
p4573
aS'67.159.7.0/24'
p4574
aS'67.159.8.0/24'
p4575
aS'67.159.9.0/24'
p4576
aS'67.159.11.0/24'
p4577
aS'67.159.12.0/24'
p4578
aS'67.159.20.0/24'
p4579
aS'67.159.21.0/24'
p4580
aS'67.159.22.0/24'
p4581
aS'67.159.23.0/24'
p4582
aS'67.159.25.0/24'
p4583
aS'67.159.28.0/24'
p4584
aS'67.159.29.0/24'
p4585
aS'67.159.30.0/24'
p4586
aS'67.159.31.0/24'
p4587
aS'67.159.32.0/24'
p4588
aS'67.159.33.0/24'
p4589
aS'67.159.34.0/24'
p4590
aS'67.159.35.0/24'
p4591
aS'67.159.36.0/24'
p4592
aS'67.159.37.0/24'
p4593
aS'67.159.54.0/24'
p4594
aS'67.159.59.0/24'
p4595
aS'67.159.60.0/24'
p4596
aS'67.159.61.0/24'
p4597
aS'67.159.62.0/24'
p4598
aS'67.213.171.0/24'
p4599
aS'69.8.176.0/20'
p4600
aS'72.20.212.0/23'
p4601
aS'74.63.64.0/18'
p4602
aS'74.63.76.0/24'
p4603
aS'74.63.77.0/24'
p4604
aS'74.63.80.0/24'
p4605
aS'74.63.81.0/24'
p4606
aS'74.63.82.0/24'
p4607
aS'74.63.83.0/24'
p4608
aS'74.63.95.0/24'
p4609
aS'74.63.103.0/24'
p4610
aS'74.63.104.0/24'
p4611
aS'74.63.108.0/24'
p4612
aS'74.63.110.0/24'
p4613
aS'74.63.113.0/24'
p4614
aS'74.63.119.0/24'
p4615
aS'74.63.120.0/24'
p4616
aS'74.63.124.0/24'
p4617
aS'74.112.86.0/24'
p4618
aS'74.116.16.0/22'
p4619
aS'74.122.96.0/22'
p4620
aS'74.221.210.0/24'
p4621
aS'74.221.211.0/24'
p4622
aS'74.221.212.0/24'
p4623
aS'74.221.213.0/24'
p4624
aS'74.221.214.0/24'
p4625
aS'74.221.215.0/24'
p4626
aS'74.221.217.0/24'
p4627
aS'74.221.219.0/24'
p4628
aS'74.221.220.0/24'
p4629
aS'76.73.0.0/17'
p4630
aS'76.73.14.0/24'
p4631
aS'76.73.15.0/24'
p4632
aS'76.73.16.0/24'
p4633
aS'76.73.17.0/24'
p4634
aS'76.73.18.0/24'
p4635
aS'76.73.51.0/24'
p4636
aS'76.73.59.0/24'
p4637
aS'76.73.60.0/24'
p4638
aS'76.73.61.0/24'
p4639
aS'76.73.84.0/24'
p4640
aS'76.73.85.0/24'
p4641
aS'76.73.96.0/24'
p4642
aS'76.73.99.0/24'
p4643
aS'76.73.100.0/24'
p4644
aS'76.73.113.0/24'
p4645
aS'76.73.119.0/24'
p4646
aS'76.73.120.0/24'
p4647
aS'76.73.124.0/24'
p4648
aS'76.73.125.0/24'
p4649
aS'76.73.126.0/24'
p4650
aS'76.73.127.0/24'
p4651
aS'79.141.32.0/20'
p4652
aS'80.249.216.0/21'
p4653
aS'82.98.192.0/21'
p4654
aS'82.98.232.0/21'
p4655
aS'82.98.240.0/20'
p4656
aS'83.245.12.0/24'
p4657
aS'83.245.53.0/24'
p4658
aS'83.245.57.0/24'
p4659
aS'88.151.112.0/22'
p4660
aS'91.195.122.0/23'
p4661
aS'91.209.71.0/24'
p4662
aS'91.234.22.0/24'
p4663
aS'93.91.32.0/20'
p4664
aS'93.93.232.0/21'
p4665
aS'94.31.0.0/18'
p4666
aS'98.142.126.0/23'
p4667
aS'98.159.96.0/22'
p4668
aS'98.159.96.0/24'
p4669
aS'98.159.97.0/24'
p4670
aS'98.159.98.0/24'
p4671
aS'98.159.99.0/24'
p4672
aS'108.179.64.0/18'
p4673
aS'109.70.224.0/21'
p4674
aS'114.114.112.0/21'
p4675
aS'116.206.72.0/24'
p4676
aS'116.206.85.0/24'
p4677
aS'116.206.103.0/24'
p4678
aS'122.112.104.0/22'
p4679
aS'122.112.104.0/24'
p4680
aS'122.112.105.0/24'
p4681
aS'122.112.106.0/24'
p4682
aS'122.112.107.0/24'
p4683
aS'128.177.0.0/16'
p4684
aS'129.192.185.0/24'
p4685
aS'134.113.224.0/21'
p4686
aS'142.131.188.0/22'
p4687
aS'144.83.0.0/16'
p4688
aS'144.211.101.0/24'
p4689
aS'148.188.192.0/21'
p4690
aS'157.154.8.0/24'
p4691
aS'158.175.64.0/19'
p4692
aS'159.182.54.0/23'
p4693
aS'159.246.60.0/22'
p4694
aS'167.89.224.0/19'
p4695
aS'170.109.16.0/24'
p4696
aS'170.248.172.0/24'
p4697
aS'170.248.173.0/24'
p4698
aS'173.0.13.0/24'
p4699
aS'173.0.15.0/24'
p4700
aS'173.192.248.0/24'
p4701
aS'173.192.249.0/24'
p4702
aS'173.192.251.0/24'
p4703
aS'177.67.170.0/23'
p4704
aS'177.124.128.0/24'
p4705
aS'178.237.112.0/20'
p4706
aS'181.189.0.0/19'
p4707
aS'190.105.156.0/23'
p4708
aS'192.100.72.0/22'
p4709
aS'192.161.80.0/20'
p4710
aS'192.187.138.0/24'
p4711
aS'192.231.215.0/24'
p4712
aS'192.240.96.0/19'
p4713
aS'192.240.96.0/23'
p4714
aS'192.240.100.0/23'
p4715
aS'192.240.102.0/23'
p4716
aS'193.104.4.0/24'
p4717
aS'194.0.158.0/24'
p4718
aS'194.9.40.0/24'
p4719
aS'194.60.224.0/24'
p4720
aS'198.16.64.0/18'
p4721
aS'198.22.24.0/24'
p4722
aS'198.52.92.0/22'
p4723
aS'198.90.96.0/22'
p4724
aS'198.136.164.0/24'
p4725
aS'198.147.146.0/24'
p4726
aS'198.202.148.0/24'
p4727
aS'198.232.125.0/24'
p4728
aS'198.255.0.0/17'
p4729
aS'199.30.83.0/24'
p4730
aS'199.87.192.0/22'
p4731
aS'199.164.185.0/24'
p4732
aS'199.231.6.0/23'
p4733
aS'199.255.72.0/23'
p4734
aS'203.191.28.0/22'
p4735
aS'203.191.28.0/24'
p4736
aS'203.191.29.0/24'
p4737
aS'203.191.30.0/24'
p4738
aS'203.191.31.0/24'
p4739
aS'204.45.0.0/16'
p4740
aS'204.45.6.0/24'
p4741
aS'204.45.7.0/24'
p4742
aS'204.45.8.0/24'
p4743
aS'204.45.9.0/24'
p4744
aS'204.45.13.0/24'
p4745
aS'204.45.14.0/24'
p4746
aS'204.45.15.0/24'
p4747
aS'204.45.17.0/24'
p4748
aS'204.45.25.0/24'
p4749
aS'204.45.27.0/24'
p4750
aS'204.45.29.0/24'
p4751
aS'204.45.30.0/24'
p4752
aS'204.45.31.0/24'
p4753
aS'204.45.32.0/24'
p4754
aS'204.45.38.0/24'
p4755
aS'204.45.40.0/24'
p4756
aS'204.45.45.0/24'
p4757
aS'204.45.51.0/24'
p4758
aS'204.45.53.0/24'
p4759
aS'204.45.64.0/24'
p4760
aS'204.45.65.0/24'
p4761
aS'204.45.66.0/24'
p4762
aS'204.45.68.0/24'
p4763
aS'204.45.69.0/24'
p4764
aS'204.45.70.0/24'
p4765
aS'204.45.71.0/24'
p4766
aS'204.45.72.0/24'
p4767
aS'204.45.73.0/24'
p4768
aS'204.45.74.0/24'
p4769
aS'204.45.75.0/24'
p4770
aS'204.45.76.0/24'
p4771
aS'204.45.80.0/24'
p4772
aS'204.45.81.0/24'
p4773
aS'204.45.82.0/24'
p4774
aS'204.45.83.0/24'
p4775
aS'204.45.84.0/24'
p4776
aS'204.45.85.0/24'
p4777
aS'204.45.86.0/24'
p4778
aS'204.45.87.0/24'
p4779
aS'204.45.88.0/24'
p4780
aS'204.45.89.0/24'
p4781
aS'204.45.90.0/24'
p4782
aS'204.45.92.0/24'
p4783
aS'204.45.93.0/24'
p4784
aS'204.45.95.0/24'
p4785
aS'204.45.96.0/24'
p4786
aS'204.45.98.0/24'
p4787
aS'204.45.99.0/24'
p4788
aS'204.45.100.0/24'
p4789
aS'204.45.101.0/24'
p4790
aS'204.45.102.0/24'
p4791
aS'204.45.106.0/24'
p4792
aS'204.45.107.0/24'
p4793
aS'204.45.108.0/24'
p4794
aS'204.45.109.0/24'
p4795
aS'204.45.110.0/24'
p4796
aS'204.45.111.0/24'
p4797
aS'204.45.112.0/24'
p4798
aS'204.45.115.0/24'
p4799
aS'204.45.117.0/24'
p4800
aS'204.45.118.0/24'
p4801
aS'204.45.119.0/24'
p4802
aS'204.45.120.0/24'
p4803
aS'204.45.121.0/24'
p4804
aS'204.45.122.0/24'
p4805
aS'204.45.123.0/24'
p4806
aS'204.45.126.0/24'
p4807
aS'204.45.127.0/24'
p4808
aS'204.45.128.0/24'
p4809
aS'204.45.129.0/24'
p4810
aS'204.45.130.0/24'
p4811
aS'204.45.133.0/24'
p4812
aS'204.45.134.0/24'
p4813
aS'204.45.135.0/24'
p4814
aS'204.45.136.0/24'
p4815
aS'204.45.137.0/24'
p4816
aS'204.45.138.0/24'
p4817
aS'204.45.140.0/24'
p4818
aS'204.45.141.0/24'
p4819
aS'204.45.143.0/24'
p4820
aS'204.45.144.0/24'
p4821
aS'204.45.145.0/24'
p4822
aS'204.45.146.0/24'
p4823
aS'204.45.148.0/24'
p4824
aS'204.45.149.0/24'
p4825
aS'204.45.150.0/24'
p4826
aS'204.45.151.0/24'
p4827
aS'204.45.155.0/24'
p4828
aS'204.45.156.0/24'
p4829
aS'204.45.157.0/24'
p4830
aS'204.45.158.0/24'
p4831
aS'204.45.159.0/24'
p4832
aS'204.45.162.0/24'
p4833
aS'204.45.174.0/24'
p4834
aS'204.45.178.0/24'
p4835
aS'204.45.180.0/24'
p4836
aS'204.45.182.0/24'
p4837
aS'204.45.183.0/24'
p4838
aS'204.45.184.0/24'
p4839
aS'204.45.185.0/24'
p4840
aS'204.45.189.0/24'
p4841
aS'204.45.190.0/24'
p4842
aS'204.45.192.0/24'
p4843
aS'204.45.193.0/24'
p4844
aS'204.45.200.0/24'
p4845
aS'204.45.203.0/24'
p4846
aS'204.45.209.0/24'
p4847
aS'204.45.210.0/24'
p4848
aS'204.45.212.0/24'
p4849
aS'204.45.215.0/24'
p4850
aS'204.45.240.0/24'
p4851
aS'204.45.249.0/24'
p4852
aS'204.45.250.0/24'
p4853
aS'204.45.251.0/24'
p4854
aS'204.45.252.0/24'
p4855
aS'204.83.168.0/24'
p4856
aS'204.227.66.0/24'
p4857
aS'204.227.68.0/24'
p4858
aS'204.227.70.0/24'
p4859
aS'204.227.73.0/24'
p4860
aS'205.159.249.0/24'
p4861
aS'207.126.96.0/19'
p4862
aS'207.210.172.0/24'
p4863
aS'208.53.128.0/18'
p4864
aS'208.53.128.0/24'
p4865
aS'208.53.129.0/24'
p4866
aS'208.53.130.0/24'
p4867
aS'208.53.131.0/24'
p4868
aS'208.53.136.0/24'
p4869
aS'208.53.137.0/24'
p4870
aS'208.53.138.0/24'
p4871
aS'208.53.140.0/24'
p4872
aS'208.53.143.0/24'
p4873
aS'208.53.147.0/24'
p4874
aS'208.53.152.0/24'
p4875
aS'208.53.160.0/24'
p4876
aS'208.53.161.0/24'
p4877
aS'208.65.4.0/24'
p4878
aS'208.69.192.0/23'
p4879
aS'208.69.195.0/24'
p4880
aS'208.79.216.0/22'
p4881
aS'208.184.0.0/15'
p4882
aS'209.66.64.0/18'
p4883
aS'209.133.0.0/17'
p4884
aS'209.177.64.0/20'
p4885
aS'209.249.0.0/16'
p4886
aS'213.152.224.0/19'
p4887
aS'213.161.64.0/19'
p4888
aS'216.166.140.0/24'
p4889
aS'216.200.0.0/16'
p4890
aS'216.227.128.0/18'
p4891
aS'216.235.142.0/24'
p4892
aS'216.235.154.0/24'
p4893
aa(lp4894
S'3.51.92.0/23'
p4895
aS'3.66.40.0/23'
p4896
aS'3.66.42.0/24'
p4897
aS'3.75.42.0/23'
p4898
aS'12.0.0.0/8'
p4899
aS'12.0.0.0/9'
p4900
aS'12.127.255.255/32'
p4901
aS'12.128.0.0/9'
p4902
aS'23.112.0.0/12'
p4903
aS'24.32.72.0/24'
p4904
aS'24.32.82.0/23'
p4905
aS'24.32.136.0/23'
p4906
aS'24.32.140.0/23'
p4907
aS'24.32.142.0/24'
p4908
aS'24.32.143.0/24'
p4909
aS'24.32.147.0/24'
p4910
aS'24.32.148.0/23'
p4911
aS'24.32.150.0/24'
p4912
aS'24.32.164.0/24'
p4913
aS'24.32.172.0/24'
p4914
aS'24.32.178.0/24'
p4915
aS'24.32.191.0/24'
p4916
aS'24.32.194.0/24'
p4917
aS'24.32.195.0/24'
p4918
aS'24.32.198.0/23'
p4919
aS'24.32.206.0/24'
p4920
aS'24.32.207.0/24'
p4921
aS'24.32.221.0/24'
p4922
aS'24.32.248.0/24'
p4923
aS'24.48.153.0/24'
p4924
aS'24.206.136.0/24'
p4925
aS'24.206.137.0/24'
p4926
aS'24.206.169.0/24'
p4927
aS'24.206.171.0/24'
p4928
aS'24.206.198.0/24'
p4929
aS'24.206.199.0/24'
p4930
aS'24.206.201.0/24'
p4931
aS'24.233.202.0/23'
p4932
aS'24.233.234.0/23'
p4933
aS'24.245.240.0/20'
p4934
aS'32.96.0.0/13'
p4935
aS'52.128.32.0/24'
p4936
aS'56.0.96.0/19'
p4937
aS'56.0.128.0/18'
p4938
aS'56.0.160.0/19'
p4939
aS'56.0.192.0/19'
p4940
aS'63.80.174.0/24'
p4941
aS'63.81.72.0/24'
p4942
aS'63.141.176.0/24'
p4943
aS'63.192.0.0/12'
p4944
aS'63.240.0.0/15'
p4945
aS'63.242.0.0/16'
p4946
aS'64.28.144.0/24'
p4947
aS'64.28.152.0/21'
p4948
aS'64.72.60.0/24'
p4949
aS'64.77.198.0/23'
p4950
aS'64.77.200.0/24'
p4951
aS'64.77.221.0/24'
p4952
aS'64.90.124.0/24'
p4953
aS'64.108.0.0/15'
p4954
aS'64.119.49.0/24'
p4955
aS'64.119.50.0/24'
p4956
aS'64.119.51.0/24'
p4957
aS'64.119.52.0/24'
p4958
aS'64.119.55.0/24'
p4959
aS'64.119.56.0/24'
p4960
aS'64.119.57.0/24'
p4961
aS'64.119.58.0/24'
p4962
aS'64.119.59.0/24'
p4963
aS'64.119.60.0/24'
p4964
aS'64.119.63.0/24'
p4965
aS'64.123.0.0/16'
p4966
aS'64.132.202.0/24'
p4967
aS'64.135.40.0/23'
p4968
aS'64.148.0.0/15'
p4969
aS'64.149.12.0/24'
p4970
aS'64.178.227.0/24'
p4971
aS'64.216.0.0/14'
p4972
aS'64.234.68.0/24'
p4973
aS'64.250.160.0/20'
p4974
aS'64.252.0.0/16'
p4975
aS'65.37.240.0/20'
p4976
aS'65.42.0.0/15'
p4977
aS'65.63.189.0/24'
p4978
aS'65.64.0.0/13'
p4979
aS'65.204.150.0/24'
p4980
aS'65.214.108.0/24'
p4981
aS'66.10.0.0/16'
p4982
aS'66.72.0.0/15'
p4983
aS'66.97.144.0/20'
p4984
aS'66.97.145.0/24'
p4985
aS'66.97.146.0/23'
p4986
aS'66.103.88.0/24'
p4987
aS'66.115.4.0/22'
p4988
aS'66.115.4.0/24'
p4989
aS'66.115.6.0/24'
p4990
aS'66.117.96.0/20'
p4991
aS'66.136.0.0/13'
p4992
aS'66.142.137.0/24'
p4993
aS'66.158.240.0/22'
p4994
aS'66.158.244.0/23'
p4995
aS'66.159.128.0/18'
p4996
aS'66.205.104.0/24'
p4997
aS'66.205.121.0/24'
p4998
aS'66.210.135.0/24'
p4999
aS'66.243.220.0/24'
p5000
aS'66.243.224.0/24'
p5001
aS'67.36.0.0/14'
p5002
aS'67.58.188.0/24'
p5003
aS'67.63.109.0/24'
p5004
aS'67.64.0.0/14'
p5005
aS'67.112.0.0/12'
p5006
aS'67.158.184.0/21'
p5007
aS'67.222.180.0/22'
p5008
aS'67.222.184.0/22'
p5009
aS'67.223.206.0/24'
p5010
aS'68.20.0.0/14'
p5011
aS'68.70.237.0/24'
p5012
aS'68.70.246.0/24'
p5013
aS'68.70.252.0/24'
p5014
aS'68.70.255.0/24'
p5015
aS'68.72.0.0/13'
p5016
aS'68.88.0.0/13'
p5017
aS'68.120.0.0/13'
p5018
aS'68.248.0.0/13'
p5019
aS'69.0.0.0/17'
p5020
aS'69.37.0.0/16'
p5021
aS'69.55.85.0/24'
p5022
aS'69.57.124.0/24'
p5023
aS'69.57.125.0/24'
p5024
aS'69.59.87.0/24'
p5025
aS'69.60.95.0/24'
p5026
aS'69.60.178.0/24'
p5027
aS'69.60.188.0/24'
p5028
aS'69.60.189.0/24'
p5029
aS'69.87.160.0/19'
p5030
aS'69.104.0.0/13'
p5031
aS'69.148.0.0/14'
p5032
aS'69.152.0.0/14'
p5033
aS'69.177.0.0/16'
p5034
aS'69.182.0.0/15'
p5035
aS'69.208.0.0/12'
p5036
aS'69.224.0.0/12'
p5037
aS'70.128.0.0/12'
p5038
aS'70.224.0.0/11'
p5039
aS'71.128.0.0/11'
p5040
aS'72.14.78.0/24'
p5041
aS'72.14.86.0/24'
p5042
aS'72.14.87.0/24'
p5043
aS'72.14.88.0/24'
p5044
aS'72.14.89.0/24'
p5045
aS'72.14.90.0/23'
p5046
aS'72.14.92.0/23'
p5047
aS'72.14.96.0/24'
p5048
aS'72.14.117.0/24'
p5049
aS'72.14.121.0/24'
p5050
aS'72.14.122.0/24'
p5051
aS'72.29.36.0/24'
p5052
aS'72.29.37.0/24'
p5053
aS'72.29.40.0/22'
p5054
aS'72.29.44.0/24'
p5055
aS'72.47.145.0/24'
p5056
aS'72.162.122.0/24'
p5057
aS'72.162.123.0/24'
p5058
aS'72.162.124.0/24'
p5059
aS'74.85.99.0/24'
p5060
aS'74.85.100.0/23'
p5061
aS'74.85.192.0/24'
p5062
aS'74.85.193.0/24'
p5063
aS'74.85.194.0/24'
p5064
aS'74.85.197.0/24'
p5065
aS'74.85.198.0/24'
p5066
aS'74.85.199.0/24'
p5067
aS'74.85.200.0/24'
p5068
aS'74.85.201.0/24'
p5069
aS'74.85.202.0/24'
p5070
aS'74.85.203.0/24'
p5071
aS'74.115.60.0/24'
p5072
aS'74.117.167.0/24'
p5073
aS'74.118.169.0/24'
p5074
aS'74.119.122.0/24'
p5075
aS'74.120.179.0/24'
p5076
aS'74.123.248.0/21'
p5077
aS'74.200.122.0/24'
p5078
aS'74.200.124.0/24'
p5079
aS'74.204.158.0/24'
p5080
aS'74.207.96.0/19'
p5081
aS'74.219.109.0/24'
p5082
aS'75.0.0.0/11'
p5083
aS'75.32.0.0/12'
p5084
aS'75.48.0.0/12'
p5085
aS'76.10.38.0/23'
p5086
aS'76.72.144.0/20'
p5087
aS'76.72.231.0/24'
p5088
aS'76.72.232.0/24'
p5089
aS'76.164.240.0/20'
p5090
aS'76.192.0.0/12'
p5091
aS'76.216.0.0/13'
p5092
aS'76.224.0.0/11'
p5093
aS'96.44.0.0/22'
p5094
aS'96.44.8.0/22'
p5095
aS'96.44.28.0/22'
p5096
aS'97.75.230.0/24'
p5097
aS'97.75.231.0/24'
p5098
aS'97.75.238.0/24'
p5099
aS'98.75.240.0/23'
p5100
aS'98.75.242.0/24'
p5101
aS'98.96.0.0/13'
p5102
aS'98.96.0.0/14'
p5103
aS'98.96.0.0/16'
p5104
aS'98.96.0.0/17'
p5105
aS'98.96.35.0/24'
p5106
aS'98.96.74.0/24'
p5107
aS'98.96.83.0/24'
p5108
aS'98.96.86.0/24'
p5109
aS'98.96.100.0/24'
p5110
aS'98.96.108.0/24'
p5111
aS'98.96.120.0/24'
p5112
aS'98.96.126.0/24'
p5113
aS'98.96.149.0/24'
p5114
aS'98.96.182.0/24'
p5115
aS'98.96.247.0/24'
p5116
aS'98.97.49.0/24'
p5117
aS'98.97.114.0/24'
p5118
aS'98.97.116.0/24'
p5119
aS'98.97.118.0/24'
p5120
aS'98.97.131.0/24'
p5121
aS'98.97.140.0/24'
p5122
aS'98.97.141.0/24'
p5123
aS'98.97.142.0/24'
p5124
aS'98.97.143.0/24'
p5125
aS'98.97.144.0/24'
p5126
aS'98.97.149.0/24'
p5127
aS'98.97.150.0/24'
p5128
aS'98.97.152.0/24'
p5129
aS'98.97.154.0/24'
p5130
aS'98.97.156.0/24'
p5131
aS'98.97.160.0/24'
p5132
aS'98.97.161.0/24'
p5133
aS'98.97.162.0/24'
p5134
aS'98.97.164.0/24'
p5135
aS'98.97.168.0/24'
p5136
aS'98.97.169.0/24'
p5137
aS'98.97.174.0/24'
p5138
aS'98.97.176.0/24'
p5139
aS'98.97.186.0/24'
p5140
aS'98.97.209.0/24'
p5141
aS'98.97.210.0/24'
p5142
aS'98.97.214.0/24'
p5143
aS'98.97.217.0/24'
p5144
aS'98.97.226.0/24'
p5145
aS'98.97.228.0/24'
p5146
aS'98.97.236.0/24'
p5147
aS'98.97.249.0/24'
p5148
aS'98.97.250.0/24'
p5149
aS'98.97.253.0/24'
p5150
aS'98.98.6.0/24'
p5151
aS'98.98.24.0/24'
p5152
aS'98.98.39.0/24'
p5153
aS'98.98.43.0/24'
p5154
aS'98.98.56.0/24'
p5155
aS'98.98.57.0/24'
p5156
aS'98.98.60.0/24'
p5157
aS'98.98.61.0/24'
p5158
aS'98.98.65.0/24'
p5159
aS'98.98.72.0/24'
p5160
aS'98.98.73.0/24'
p5161
aS'98.98.74.0/24'
p5162
aS'98.98.75.0/24'
p5163
aS'98.98.77.0/24'
p5164
aS'98.98.78.0/24'
p5165
aS'98.98.87.0/24'
p5166
aS'98.98.88.0/24'
p5167
aS'98.98.95.0/24'
p5168
aS'98.98.102.0/24'
p5169
aS'98.98.105.0/24'
p5170
aS'98.98.106.0/24'
p5171
aS'98.98.112.0/24'
p5172
aS'98.98.113.0/24'
p5173
aS'98.98.123.0/24'
p5174
aS'98.98.125.0/24'
p5175
aS'98.98.127.0/24'
p5176
aS'98.98.129.0/24'
p5177
aS'98.98.132.0/24'
p5178
aS'98.98.133.0/24'
p5179
aS'98.98.148.0/24'
p5180
aS'98.98.160.0/24'
p5181
aS'98.98.161.0/24'
p5182
aS'98.98.162.0/24'
p5183
aS'98.98.163.0/24'
p5184
aS'98.98.166.0/24'
p5185
aS'98.98.167.0/24'
p5186
aS'98.98.182.0/24'
p5187
aS'98.98.183.0/24'
p5188
aS'98.98.185.0/24'
p5189
aS'98.98.187.0/24'
p5190
aS'98.98.189.0/24'
p5191
aS'98.98.221.0/24'
p5192
aS'98.98.227.0/24'
p5193
aS'98.98.244.0/24'
p5194
aS'98.98.245.0/24'
p5195
aS'98.99.4.0/24'
p5196
aS'98.99.12.0/24'
p5197
aS'98.99.15.0/24'
p5198
aS'98.99.21.0/24'
p5199
aS'98.99.32.0/24'
p5200
aS'98.99.47.0/24'
p5201
aS'98.99.59.0/24'
p5202
aS'98.99.61.0/24'
p5203
aS'98.99.64.0/24'
p5204
aS'98.99.65.0/24'
p5205
aS'98.99.67.0/24'
p5206
aS'98.99.69.0/24'
p5207
aS'98.99.75.0/24'
p5208
aS'98.99.84.0/24'
p5209
aS'98.99.104.0/24'
p5210
aS'98.99.106.0/24'
p5211
aS'98.99.117.0/24'
p5212
aS'98.99.125.0/24'
p5213
aS'98.99.127.0/24'
p5214
aS'98.99.129.0/24'
p5215
aS'98.99.143.0/24'
p5216
aS'98.99.147.0/24'
p5217
aS'98.99.148.0/24'
p5218
aS'98.99.149.0/24'
p5219
aS'98.99.151.0/24'
p5220
aS'98.99.152.0/24'
p5221
aS'98.99.154.0/24'
p5222
aS'98.99.161.0/24'
p5223
aS'98.99.199.0/24'
p5224
aS'98.99.200.0/24'
p5225
aS'98.99.201.0/24'
p5226
aS'98.99.202.0/24'
p5227
aS'98.99.203.0/24'
p5228
aS'98.99.204.0/24'
p5229
aS'98.99.205.0/24'
p5230
aS'98.99.206.0/24'
p5231
aS'98.99.207.0/24'
p5232
aS'98.99.208.0/24'
p5233
aS'98.99.209.0/24'
p5234
aS'98.99.210.0/24'
p5235
aS'98.99.211.0/24'
p5236
aS'98.99.212.0/24'
p5237
aS'98.99.213.0/24'
p5238
aS'98.99.214.0/24'
p5239
aS'98.99.215.0/24'
p5240
aS'98.99.216.0/24'
p5241
aS'98.99.217.0/24'
p5242
aS'98.99.218.0/24'
p5243
aS'98.99.219.0/24'
p5244
aS'98.99.220.0/24'
p5245
aS'98.99.221.0/24'
p5246
aS'98.99.223.0/24'
p5247
aS'99.0.0.0/12'
p5248
aS'99.22.224.0/23'
p5249
aS'99.32.0.0/12'
p5250
aS'99.48.0.0/13'
p5251
aS'99.51.248.0/21'
p5252
aS'99.56.0.0/13'
p5253
aS'99.64.0.0/11'
p5254
aS'99.96.0.0/11'
p5255
aS'99.128.0.0/11'
p5256
aS'99.160.0.0/13'
p5257
aS'99.168.0.0/13'
p5258
aS'99.176.0.0/12'
p5259
aS'99.183.200.0/22'
p5260
aS'100.43.206.0/24'
p5261
aS'104.0.0.0/12'
p5262
aS'107.128.0.0/12'
p5263
aS'107.192.0.0/12'
p5264
aS'107.208.0.0/12'
p5265
aS'108.64.0.0/11'
p5266
aS'108.160.186.0/23'
p5267
aS'108.169.204.0/22'
p5268
aS'108.169.216.0/21'
p5269
aS'108.192.0.0/10'
p5270
aS'128.185.0.0/16'
p5271
aS'129.17.146.0/24'
p5272
aS'129.17.147.0/24'
p5273
aS'129.37.0.0/16'
p5274
aS'129.42.0.0/16'
p5275
aS'129.246.7.0/24'
p5276
aS'129.253.60.0/24'
p5277
aS'130.50.0.0/16'
p5278
aS'135.89.151.0/24'
p5279
aS'136.223.248.0/24'
p5280
aS'138.84.0.0/16'
p5281
aS'138.108.11.0/24'
p5282
aS'138.116.0.0/16'
p5283
aS'138.116.129.0/24'
p5284
aS'138.116.130.0/23'
p5285
aS'138.116.132.0/24'
p5286
aS'138.116.133.0/24'
p5287
aS'138.116.135.0/24'
p5288
aS'138.116.136.0/24'
p5289
aS'138.116.139.0/24'
p5290
aS'138.116.151.0/24'
p5291
aS'138.116.233.0/24'
p5292
aS'139.56.8.0/24'
p5293
aS'139.125.0.0/16'
p5294
aS'139.151.0.0/16'
p5295
aS'139.181.8.0/22'
p5296
aS'139.181.24.0/22'
p5297
aS'139.181.28.0/22'
p5298
aS'140.89.64.0/18'
p5299
aS'140.171.0.0/16'
p5300
aS'140.212.21.0/24'
p5301
aS'140.212.22.0/24'
p5302
aS'140.212.56.0/21'
p5303
aS'140.212.160.0/21'
p5304
aS'140.242.18.0/24'
p5305
aS'141.174.90.0/24'
p5306
aS'141.174.95.0/24'
p5307
aS'141.174.96.0/24'
p5308
aS'141.174.97.0/24'
p5309
aS'141.174.98.0/24'
p5310
aS'141.174.195.0/24'
p5311
aS'141.174.255.0/24'
p5312
aS'141.248.0.0/16'
p5313
aS'142.0.113.0/24'
p5314
aS'142.0.115.0/24'
p5315
aS'143.61.147.0/24'
p5316
aS'143.244.254.0/24'
p5317
aS'144.198.80.0/23'
p5318
aS'144.202.222.0/24'
p5319
aS'146.174.246.0/23'
p5320
aS'146.222.124.0/24'
p5321
aS'146.222.125.0/24'
p5322
aS'146.222.132.0/24'
p5323
aS'146.222.134.0/24'
p5324
aS'146.222.135.0/24'
p5325
aS'146.222.136.0/24'
p5326
aS'146.222.139.0/24'
p5327
aS'146.222.140.0/24'
p5328
aS'146.222.144.0/24'
p5329
aS'146.222.151.0/24'
p5330
aS'146.222.153.0/24'
p5331
aS'146.222.154.0/24'
p5332
aS'146.222.155.0/24'
p5333
aS'147.187.100.0/24'
p5334
aS'148.109.90.0/24'
p5335
aS'148.131.255.0/24'
p5336
aS'149.134.173.0/24'
p5337
aS'150.105.110.0/24'
p5338
aS'151.190.0.0/16'
p5339
aS'151.190.252.0/22'
p5340
aS'152.97.0.0/16'
p5341
aS'155.63.80.0/22'
p5342
aS'155.63.162.0/24'
p5343
aS'156.45.194.0/24'
p5344
aS'156.45.195.0/24'
p5345
aS'156.45.196.0/24'
p5346
aS'156.45.197.0/24'
p5347
aS'156.55.26.0/24'
p5348
aS'157.154.3.0/24'
p5349
aS'157.154.4.0/24'
p5350
aS'157.154.5.0/24'
p5351
aS'157.154.6.0/24'
p5352
aS'157.154.7.0/24'
p5353
aS'157.165.0.0/16'
p5354
aS'157.234.0.0/16'
p5355
aS'157.234.220.0/23'
p5356
aS'157.234.230.0/24'
p5357
aS'158.35.0.0/16'
p5358
aS'158.107.0.0/16'
p5359
aS'158.107.100.0/22'
p5360
aS'158.107.108.0/22'
p5361
aS'158.107.116.0/22'
p5362
aS'158.155.0.0/16'
p5363
aS'159.10.254.0/24'
p5364
aS'159.113.101.0/24'
p5365
aS'159.113.102.0/24'
p5366
aS'159.113.109.0/24'
p5367
aS'159.113.111.0/24'
p5368
aS'159.113.118.0/24'
p5369
aS'159.113.120.0/24'
p5370
aS'159.132.245.0/24'
p5371
aS'159.182.156.0/24'
p5372
aS'159.215.64.0/23'
p5373
aS'159.215.72.0/24'
p5374
aS'160.86.0.0/16'
p5375
aS'160.231.0.0/16'
p5376
aS'160.231.1.0/24'
p5377
aS'161.133.0.0/16'
p5378
aS'161.133.254.0/24'
p5379
aS'162.27.44.0/24'
p5380
aS'162.27.47.0/24'
p5381
aS'162.27.49.0/24'
p5382
aS'162.27.60.0/24'
p5383
aS'162.44.239.0/24'
p5384
aS'162.57.0.0/16'
p5385
aS'162.61.176.0/22'
p5386
aS'162.192.0.0/12'
p5387
aS'162.224.0.0/12'
p5388
aS'162.242.76.0/22'
p5389
aS'162.242.106.0/23'
p5390
aS'165.74.0.0/16'
p5391
aS'165.87.0.0/16'
p5392
aS'165.129.13.0/24'
p5393
aS'165.129.20.0/24'
p5394
aS'165.204.73.0/24'
p5395
aS'165.204.74.0/24'
p5396
aS'165.204.84.0/22'
p5397
aS'165.204.88.0/22'
p5398
aS'165.252.0.0/16'
p5399
aS'166.72.0.0/16'
p5400
aS'167.18.19.0/24'
p5401
aS'167.18.39.0/24'
p5402
aS'167.18.49.0/24'
p5403
aS'167.165.248.0/24'
p5404
aS'167.181.50.0/24'
p5405
aS'168.8.27.0/24'
p5406
aS'168.8.28.0/22'
p5407
aS'168.8.32.0/24'
p5408
aS'168.8.48.0/22'
p5409
aS'168.8.52.0/22'
p5410
aS'168.8.60.0/22'
p5411
aS'168.8.64.0/22'
p5412
aS'168.8.68.0/22'
p5413
aS'168.8.72.0/22'
p5414
aS'168.8.76.0/22'
p5415
aS'168.8.80.0/24'
p5416
aS'168.8.84.0/24'
p5417
aS'168.8.96.0/24'
p5418
aS'168.8.108.0/23'
p5419
aS'168.8.110.0/24'
p5420
aS'168.8.111.0/24'
p5421
aS'168.8.112.0/23'
p5422
aS'168.8.114.0/23'
p5423
aS'168.8.116.0/24'
p5424
aS'168.8.117.0/24'
p5425
aS'168.8.118.0/23'
p5426
aS'168.8.120.0/22'
p5427
aS'168.8.124.0/22'
p5428
aS'168.8.128.0/22'
p5429
aS'168.8.132.0/22'
p5430
aS'168.8.136.0/21'
p5431
aS'168.8.144.0/23'
p5432
aS'168.8.146.0/23'
p5433
aS'168.8.148.0/22'
p5434
aS'168.8.152.0/22'
p5435
aS'168.8.156.0/23'
p5436
aS'168.8.158.0/23'
p5437
aS'168.8.160.0/23'
p5438
aS'168.8.162.0/23'
p5439
aS'168.8.164.0/24'
p5440
aS'168.8.165.0/24'
p5441
aS'168.8.166.0/23'
p5442
aS'168.8.168.0/24'
p5443
aS'168.8.169.0/24'
p5444
aS'168.8.170.0/24'
p5445
aS'168.8.171.0/24'
p5446
aS'168.8.172.0/24'
p5447
aS'168.8.173.0/24'
p5448
aS'168.8.174.0/24'
p5449
aS'168.8.175.0/24'
p5450
aS'168.8.176.0/20'
p5451
aS'168.8.208.0/21'
p5452
aS'168.8.216.0/21'
p5453
aS'168.8.224.0/24'
p5454
aS'168.8.228.0/23'
p5455
aS'168.8.230.0/24'
p5456
aS'168.8.231.0/24'
p5457
aS'168.8.238.0/24'
p5458
aS'168.9.16.0/24'
p5459
aS'168.9.17.0/24'
p5460
aS'168.9.18.0/24'
p5461
aS'168.9.19.0/24'
p5462
aS'168.9.20.0/24'
p5463
aS'168.9.24.0/24'
p5464
aS'168.9.25.0/24'
p5465
aS'168.9.26.0/24'
p5466
aS'168.9.27.0/24'
p5467
aS'168.9.34.0/24'
p5468
aS'168.9.35.0/24'
p5469
aS'168.9.36.0/24'
p5470
aS'168.9.37.0/24'
p5471
aS'168.9.38.0/24'
p5472
aS'168.9.39.0/24'
p5473
aS'168.9.40.0/24'
p5474
aS'168.9.41.0/24'
p5475
aS'168.9.42.0/24'
p5476
aS'168.9.43.0/24'
p5477
aS'168.9.44.0/24'
p5478
aS'168.9.48.0/22'
p5479
aS'168.9.52.0/24'
p5480
aS'168.9.53.0/24'
p5481
aS'168.9.54.0/24'
p5482
aS'168.9.55.0/24'
p5483
aS'168.9.59.0/24'
p5484
aS'168.9.60.0/24'
p5485
aS'168.9.64.0/21'
p5486
aS'168.9.72.0/21'
p5487
aS'168.9.80.0/23'
p5488
aS'168.9.82.0/24'
p5489
aS'168.9.85.0/24'
p5490
aS'168.9.86.0/23'
p5491
aS'168.9.96.0/20'
p5492
aS'168.9.112.0/22'
p5493
aS'168.9.116.0/24'
p5494
aS'168.9.120.0/21'
p5495
aS'168.9.128.0/24'
p5496
aS'168.9.214.0/24'
p5497
aS'168.10.22.0/23'
p5498
aS'168.10.24.0/24'
p5499
aS'168.10.26.0/24'
p5500
aS'168.10.27.0/24'
p5501
aS'168.10.28.0/24'
p5502
aS'168.10.29.0/24'
p5503
aS'168.10.30.0/24'
p5504
aS'168.10.31.0/24'
p5505
aS'168.10.32.0/23'
p5506
aS'168.10.36.0/24'
p5507
aS'168.10.40.0/24'
p5508
aS'168.10.42.0/23'
p5509
aS'168.10.44.0/24'
p5510
aS'168.10.46.0/24'
p5511
aS'168.10.47.0/24'
p5512
aS'168.10.48.0/21'
p5513
aS'168.10.56.0/24'
p5514
aS'168.10.57.0/24'
p5515
aS'168.10.58.0/23'
p5516
aS'168.10.60.0/24'
p5517
aS'168.10.63.0/24'
p5518
aS'168.10.64.0/22'
p5519
aS'168.10.72.0/24'
p5520
aS'168.10.76.0/24'
p5521
aS'168.10.77.0/24'
p5522
aS'168.10.78.0/24'
p5523
aS'168.10.79.0/24'
p5524
aS'168.10.85.0/24'
p5525
aS'168.10.86.0/23'
p5526
aS'168.10.88.0/21'
p5527
aS'168.10.96.0/20'
p5528
aS'168.10.112.0/21'
p5529
aS'168.10.137.0/24'
p5530
aS'168.10.142.0/24'
p5531
aS'168.10.144.0/24'
p5532
aS'168.10.148.0/22'
p5533
aS'168.10.156.0/22'
p5534
aS'168.10.160.0/23'
p5535
aS'168.10.162.0/23'
p5536
aS'168.10.164.0/22'
p5537
aS'168.10.168.0/24'
p5538
aS'168.10.170.0/24'
p5539
aS'168.10.171.0/24'
p5540
aS'168.10.172.0/24'
p5541
aS'168.10.176.0/24'
p5542
aS'168.10.180.0/24'
p5543
aS'168.10.181.0/24'
p5544
aS'168.10.182.0/24'
p5545
aS'168.10.184.0/22'
p5546
aS'168.10.192.0/20'
p5547
aS'168.10.208.0/23'
p5548
aS'168.10.210.0/24'
p5549
aS'168.11.14.0/24'
p5550
aS'168.11.15.0/24'
p5551
aS'168.11.16.0/24'
p5552
aS'168.11.32.0/22'
p5553
aS'168.11.36.0/23'
p5554
aS'168.11.38.0/23'
p5555
aS'168.11.40.0/24'
p5556
aS'168.11.42.0/24'
p5557
aS'168.11.44.0/23'
p5558
aS'168.11.46.0/24'
p5559
aS'168.11.47.0/24'
p5560
aS'168.11.48.0/24'
p5561
aS'168.11.49.0/24'
p5562
aS'168.11.50.0/24'
p5563
aS'168.11.51.0/24'
p5564
aS'168.11.52.0/24'
p5565
aS'168.11.56.0/23'
p5566
aS'168.11.60.0/23'
p5567
aS'168.11.62.0/24'
p5568
aS'168.11.68.0/22'
p5569
aS'168.11.76.0/24'
p5570
aS'168.11.77.0/24'
p5571
aS'168.11.78.0/24'
p5572
aS'168.11.79.0/24'
p5573
aS'168.11.80.0/24'
p5574
aS'168.11.88.0/23'
p5575
aS'168.11.90.0/24'
p5576
aS'168.11.96.0/22'
p5577
aS'168.11.112.0/21'
p5578
aS'168.11.135.0/24'
p5579
aS'168.11.136.0/24'
p5580
aS'168.11.137.0/24'
p5581
aS'168.11.138.0/23'
p5582
aS'168.11.140.0/24'
p5583
aS'168.11.142.0/23'
p5584
aS'168.11.144.0/20'
p5585
aS'168.11.164.0/22'
p5586
aS'168.11.168.0/21'
p5587
aS'168.11.191.0/24'
p5588
aS'168.11.195.0/24'
p5589
aS'168.11.200.0/21'
p5590
aS'168.11.208.0/22'
p5591
aS'168.11.212.0/23'
p5592
aS'168.11.214.0/23'
p5593
aS'168.11.225.0/24'
p5594
aS'168.11.226.0/24'
p5595
aS'168.11.227.0/24'
p5596
aS'168.11.229.0/24'
p5597
aS'168.11.230.0/24'
p5598
aS'168.71.0.0/16'
p5599
aS'168.85.0.0/16'
p5600
aS'168.85.177.0/24'
p5601
aS'168.189.88.0/24'
p5602
aS'168.189.89.0/24'
p5603
aS'168.189.90.0/24'
p5604
aS'168.189.91.0/24'
p5605
aS'168.189.92.0/24'
p5606
aS'168.189.93.0/24'
p5607
aS'168.189.94.0/24'
p5608
aS'168.189.95.0/24'
p5609
aS'168.189.252.0/24'
p5610
aS'168.189.253.0/24'
p5611
aS'168.189.254.0/23'
p5612
aS'168.233.250.0/24'
p5613
aS'168.238.242.0/24'
p5614
aS'168.241.0.0/16'
p5615
aS'169.150.0.0/16'
p5616
aS'169.245.249.0/24'
p5617
aS'169.252.255.0/24'
p5618
aS'170.37.102.0/23'
p5619
aS'170.37.144.0/24'
p5620
aS'170.37.145.0/24'
p5621
aS'170.37.146.0/24'
p5622
aS'170.37.147.0/24'
p5623
aS'170.37.148.0/23'
p5624
aS'170.37.150.0/24'
p5625
aS'170.37.224.0/24'
p5626
aS'170.40.224.0/24'
p5627
aS'170.41.159.0/24'
p5628
aS'170.91.0.0/17'
p5629
aS'170.97.165.0/24'
p5630
aS'170.109.0.0/21'
p5631
aS'170.109.8.0/21'
p5632
aS'170.109.16.0/21'
p5633
aS'170.109.24.0/21'
p5634
aS'170.109.32.0/21'
p5635
aS'170.109.40.0/21'
p5636
aS'170.109.48.0/21'
p5637
aS'170.109.56.0/21'
p5638
aS'170.109.64.0/21'
p5639
aS'170.109.72.0/21'
p5640
aS'170.109.80.0/21'
p5641
aS'170.109.88.0/21'
p5642
aS'170.109.96.0/21'
p5643
aS'170.109.104.0/21'
p5644
aS'170.109.112.0/21'
p5645
aS'170.109.120.0/21'
p5646
aS'170.109.128.0/21'
p5647
aS'170.109.136.0/21'
p5648
aS'170.109.144.0/21'
p5649
aS'170.109.152.0/21'
p5650
aS'170.109.160.0/21'
p5651
aS'170.109.168.0/21'
p5652
aS'170.109.176.0/21'
p5653
aS'170.109.184.0/21'
p5654
aS'170.109.192.0/21'
p5655
aS'170.109.200.0/21'
p5656
aS'170.109.208.0/22'
p5657
aS'170.109.212.0/22'
p5658
aS'170.109.216.0/21'
p5659
aS'170.109.224.0/21'
p5660
aS'170.109.232.0/21'
p5661
aS'170.109.240.0/21'
p5662
aS'170.109.248.0/21'
p5663
aS'170.187.0.0/24'
p5664
aS'170.190.0.0/16'
p5665
aS'170.225.222.0/24'
p5666
aS'170.225.223.0/24'
p5667
aS'170.226.21.0/24'
p5668
aS'170.252.56.0/24'
p5669
aS'172.0.0.0/12'
p5670
aS'172.116.0.0/24'
p5671
aS'173.230.80.0/22'
p5672
aS'187.142.0.0/16'
p5673
aS'192.9.44.0/24'
p5674
aS'192.9.45.0/24'
p5675
aS'192.9.46.0/24'
p5676
aS'192.9.47.0/24'
p5677
aS'192.19.223.0/24'
p5678
aS'192.26.100.0/24'
p5679
aS'192.26.101.0/24'
p5680
aS'192.26.102.0/24'
p5681
aS'192.31.87.0/24'
p5682
aS'192.35.105.0/24'
p5683
aS'192.42.98.0/24'
p5684
aS'192.54.250.0/24'
p5685
aS'192.55.86.0/24'
p5686
aS'192.77.175.0/24'
p5687
aS'192.77.176.0/22'
p5688
aS'192.77.176.0/24'
p5689
aS'192.77.217.0/24'
p5690
aS'192.82.103.0/24'
p5691
aS'192.86.32.0/24'
p5692
aS'192.86.33.0/24'
p5693
aS'192.88.28.0/24'
p5694
aS'192.88.66.0/24'
p5695
aS'192.91.194.0/24'
p5696
aS'192.91.197.0/24'
p5697
aS'192.94.40.0/24'
p5698
aS'192.102.218.0/24'
p5699
aS'192.108.93.0/24'
p5700
aS'192.112.219.0/24'
p5701
aS'192.126.50.0/24'
p5702
aS'192.127.228.0/24'
p5703
aS'192.131.185.0/24'
p5704
aS'192.131.233.0/24'
p5705
aS'192.133.63.0/24'
p5706
aS'192.133.129.0/24'
p5707
aS'192.133.254.0/24'
p5708
aS'192.137.57.0/24'
p5709
aS'192.138.195.0/24'
p5710
aS'192.138.196.0/24'
p5711
aS'192.138.197.0/24'
p5712
aS'192.146.148.0/24'
p5713
aS'192.146.217.0/24'
p5714
aS'192.147.142.0/24'
p5715
aS'192.147.143.0/24'
p5716
aS'192.147.144.0/24'
p5717
aS'192.147.145.0/24'
p5718
aS'192.149.125.0/24'
p5719
aS'192.151.89.0/24'
p5720
aS'192.152.249.0/24'
p5721
aS'192.153.124.0/24'
p5722
aS'192.153.157.0/24'
p5723
aS'192.153.191.0/24'
p5724
aS'192.156.214.0/24'
p5725
aS'192.157.40.0/21'
p5726
aS'192.158.40.0/24'
p5727
aS'192.158.41.0/24'
p5728
aS'192.158.47.0/24'
p5729
aS'192.160.145.0/24'
p5730
aS'192.172.222.0/24'
p5731
aS'192.189.58.0/24'
p5732
aS'192.189.161.0/24'
p5733
aS'192.195.29.0/24'
p5734
aS'192.195.176.0/24'
p5735
aS'192.203.127.0/24'
p5736
aS'192.203.134.0/24'
p5737
aS'192.205.31.0/24'
p5738
aS'192.205.32.0/22'
p5739
aS'192.205.36.0/23'
p5740
aS'192.205.195.0/24'
p5741
aS'192.215.0.0/16'
p5742
aS'192.227.32.0/19'
p5743
aS'192.232.172.0/22'
p5744
aS'192.234.107.0/24'
p5745
aS'192.234.129.0/24'
p5746
aS'192.234.130.0/24'
p5747
aS'192.234.131.0/24'
p5748
aS'192.234.132.0/24'
p5749
aS'192.234.133.0/24'
p5750
aS'192.234.134.0/24'
p5751
aS'192.234.136.0/24'
p5752
aS'192.241.47.0/24'
p5753
aS'192.245.119.0/24'
p5754
aS'192.251.25.0/24'
p5755
aS'192.251.109.0/24'
p5756
aS'192.251.159.0/24'
p5757
aS'192.252.252.0/24'
p5758
aS'198.4.44.0/24'
p5759
aS'198.6.84.0/24'
p5760
aS'198.7.128.0/18'
p5761
aS'198.17.39.0/24'
p5762
aS'198.17.222.0/24'
p5763
aS'198.22.137.0/24'
p5764
aS'198.47.16.0/24'
p5765
aS'198.48.27.0/24'
p5766
aS'198.48.44.0/22'
p5767
aS'198.49.45.0/24'
p5768
aS'198.51.92.0/24'
p5769
aS'198.81.193.0/24'
p5770
aS'198.87.48.0/24'
p5771
aS'198.89.32.0/24'
p5772
aS'198.89.33.0/24'
p5773
aS'198.89.34.0/24'
p5774
aS'198.89.35.0/24'
p5775
aS'198.89.36.0/24'
p5776
aS'198.89.37.0/24'
p5777
aS'198.89.38.0/24'
p5778
aS'198.89.39.0/24'
p5779
aS'198.89.40.0/24'
p5780
aS'198.89.41.0/24'
p5781
aS'198.89.42.0/24'
p5782
aS'198.89.43.0/24'
p5783
aS'198.90.124.0/23'
p5784
aS'198.97.51.0/24'
p5785
aS'198.99.108.0/24'
p5786
aS'198.99.190.0/24'
p5787
aS'198.100.16.0/24'
p5788
aS'198.102.34.0/24'
p5789
aS'198.102.36.0/24'
p5790
aS'198.102.37.0/24'
p5791
aS'198.102.38.0/24'
p5792
aS'198.102.39.0/24'
p5793
aS'198.102.40.0/24'
p5794
aS'198.102.41.0/24'
p5795
aS'198.102.42.0/24'
p5796
aS'198.102.43.0/24'
p5797
aS'198.102.103.0/24'
p5798
aS'198.133.16.0/20'
p5799
aS'198.133.187.0/24'
p5800
aS'198.133.188.0/23'
p5801
aS'198.137.182.0/24'
p5802
aS'198.139.110.0/24'
p5803
aS'198.140.152.0/24'
p5804
aS'198.148.64.0/21'
p5805
aS'198.148.72.0/22'
p5806
aS'198.148.76.0/24'
p5807
aS'198.153.131.0/24'
p5808
aS'198.153.231.0/24'
p5809
aS'198.153.241.0/24'
p5810
aS'198.160.9.0/24'
p5811
aS'198.160.12.0/24'
p5812
aS'198.160.192.0/24'
p5813
aS'198.160.194.0/24'
p5814
aS'198.160.197.0/24'
p5815
aS'198.175.205.0/24'
p5816
aS'198.176.25.0/24'
p5817
aS'198.179.142.0/24'
p5818
aS'198.179.143.0/24'
p5819
aS'198.179.144.0/24'
p5820
aS'198.179.145.0/24'
p5821
aS'198.179.173.0/24'
p5822
aS'198.179.208.0/24'
p5823
aS'198.179.209.0/24'
p5824
aS'198.181.238.0/24'
p5825
aS'198.182.12.0/24'
p5826
aS'198.182.193.0/24'
p5827
aS'198.183.157.0/24'
p5828
aS'198.183.158.0/24'
p5829
aS'198.184.246.0/24'
p5830
aS'198.184.250.0/24'
p5831
aS'198.185.190.0/24'
p5832
aS'198.186.48.0/22'
p5833
aS'198.187.248.0/23'
p5834
aS'198.190.216.0/24'
p5835
aS'198.190.221.0/24'
p5836
aS'198.190.247.0/24'
p5837
aS'198.199.6.0/24'
p5838
aS'198.199.13.0/24'
p5839
aS'198.199.32.0/23'
p5840
aS'198.202.146.0/24'
p5841
aS'198.202.236.0/24'
p5842
aS'198.204.92.0/24'
p5843
aS'198.205.14.0/24'
p5844
aS'198.207.241.0/24'
p5845
aS'198.208.29.0/24'
p5846
aS'198.208.36.0/23'
p5847
aS'198.208.247.0/24'
p5848
aS'198.232.180.0/24'
p5849
aS'198.232.253.0/24'
p5850
aS'198.235.160.0/21'
p5851
aS'198.245.140.0/24'
p5852
aS'198.245.254.0/24'
p5853
aS'198.246.36.0/24'
p5854
aS'198.246.169.0/24'
p5855
aS'198.246.254.0/24'
p5856
aS'198.251.8.0/23'
p5857
aS'198.251.24.0/22'
p5858
aS'198.252.193.0/24'
p5859
aS'199.4.1.0/24'
p5860
aS'199.4.146.0/23'
p5861
aS'199.20.62.0/24'
p5862
aS'199.26.167.0/24'
p5863
aS'199.26.168.0/24'
p5864
aS'199.26.211.0/24'
p5865
aS'199.29.211.0/24'
p5866
aS'199.29.212.0/24'
p5867
aS'199.29.213.0/24'
p5868
aS'199.29.214.0/24'
p5869
aS'199.29.215.0/24'
p5870
aS'199.33.64.0/24'
p5871
aS'199.33.79.0/24'
p5872
aS'199.36.41.0/24'
p5873
aS'199.36.172.0/22'
p5874
aS'199.37.112.0/24'
p5875
aS'199.37.123.0/24'
p5876
aS'199.37.138.0/24'
p5877
aS'199.46.8.0/24'
p5878
aS'199.46.9.0/24'
p5879
aS'199.46.10.0/24'
p5880
aS'199.46.11.0/24'
p5881
aS'199.48.116.0/22'
p5882
aS'199.48.136.0/21'
p5883
aS'199.59.223.0/24'
p5884
aS'199.66.2.0/23'
p5885
aS'199.67.16.0/20'
p5886
aS'199.67.64.0/23'
p5887
aS'199.67.66.0/24'
p5888
aS'199.69.0.0/16'
p5889
aS'199.70.0.0/16'
p5890
aS'199.80.70.0/24'
p5891
aS'199.80.74.0/24'
p5892
aS'199.80.75.0/24'
p5893
aS'199.80.78.0/24'
p5894
aS'199.80.80.0/24'
p5895
aS'199.80.82.0/24'
p5896
aS'199.80.86.0/24'
p5897
aS'199.80.88.0/24'
p5898
aS'199.80.95.0/24'
p5899
aS'199.80.103.0/24'
p5900
aS'199.80.104.0/24'
p5901
aS'199.80.117.0/24'
p5902
aS'199.80.125.0/24'
p5903
aS'199.88.142.0/24'
p5904
aS'199.88.240.0/24'
p5905
aS'199.89.229.0/24'
p5906
aS'199.99.227.0/24'
p5907
aS'199.101.1.0/24'
p5908
aS'199.101.4.0/24'
p5909
aS'199.101.6.0/24'
p5910
aS'199.103.32.0/20'
p5911
aS'199.103.52.0/22'
p5912
aS'199.105.0.0/16'
p5913
aS'199.106.0.0/15'
p5914
aS'199.107.43.0/24'
p5915
aS'199.107.45.0/24'
p5916
aS'199.108.0.0/16'
p5917
aS'199.120.252.0/24'
p5918
aS'199.165.206.0/24'
p5919
aS'199.168.58.0/24'
p5920
aS'199.168.59.0/24'
p5921
aS'199.176.177.0/24'
p5922
aS'199.176.178.0/24'
p5923
aS'199.176.179.0/24'
p5924
aS'199.176.181.0/24'
p5925
aS'199.176.182.0/24'
p5926
aS'199.176.183.0/24'
p5927
aS'199.176.195.0/24'
p5928
aS'199.176.224.0/24'
p5929
aS'199.176.225.0/24'
p5930
aS'199.176.226.0/24'
p5931
aS'199.176.227.0/24'
p5932
aS'199.176.228.0/24'
p5933
aS'199.176.229.0/24'
p5934
aS'199.176.230.0/24'
p5935
aS'199.176.231.0/24'
p5936
aS'199.176.232.0/24'
p5937
aS'199.176.233.0/24'
p5938
aS'199.176.234.0/24'
p5939
aS'199.176.235.0/24'
p5940
aS'199.176.240.0/24'
p5941
aS'199.177.45.0/24'
p5942
aS'199.178.49.0/24'
p5943
aS'199.178.62.0/24'
p5944
aS'199.178.198.0/24'
p5945
aS'199.178.199.0/24'
p5946
aS'199.178.200.0/24'
p5947
aS'199.178.201.0/24'
p5948
aS'199.178.216.0/24'
p5949
aS'199.178.222.0/24'
p5950
aS'199.179.228.0/24'
p5951
aS'199.179.240.0/24'
p5952
aS'199.181.152.0/22'
p5953
aS'199.181.176.0/24'
p5954
aS'199.186.0.0/16'
p5955
aS'199.189.48.0/21'
p5956
aS'199.189.56.0/22'
p5957
aS'199.189.60.0/23'
p5958
aS'199.191.128.0/23'
p5959
aS'199.191.144.0/23'
p5960
aS'199.193.46.0/24'
p5961
aS'199.201.7.0/24'
p5962
aS'199.201.168.0/24'
p5963
aS'199.223.143.0/24'
p5964
aS'199.231.255.0/24'
p5965
aS'199.233.154.0/23'
p5966
aS'199.242.192.0/24'
p5967
aS'199.244.134.0/24'
p5968
aS'199.253.208.0/21'
p5969
aS'199.254.137.0/24'
p5970
aS'204.12.160.0/19'
p5971
aS'204.17.232.0/24'
p5972
aS'204.26.32.0/20'
p5973
aS'204.26.48.0/21'
p5974
aS'204.26.56.0/24'
p5975
aS'204.48.96.0/24'
p5976
aS'204.48.97.0/24'
p5977
aS'204.48.98.0/24'
p5978
aS'204.48.99.0/24'
p5979
aS'204.48.100.0/24'
p5980
aS'204.48.101.0/24'
p5981
aS'204.48.102.0/24'
p5982
aS'204.48.103.0/24'
p5983
aS'204.48.104.0/24'
p5984
aS'204.48.105.0/24'
p5985
aS'204.48.106.0/24'
p5986
aS'204.48.107.0/24'
p5987
aS'204.48.108.0/24'
p5988
aS'204.48.109.0/24'
p5989
aS'204.48.110.0/24'
p5990
aS'204.48.111.0/24'
p5991
aS'204.52.232.0/24'
p5992
aS'204.58.180.0/24'
p5993
aS'204.58.204.0/23'
p5994
aS'204.60.0.0/16'
p5995
aS'204.68.210.0/24'
p5996
aS'204.75.85.0/24'
p5997
aS'204.75.141.0/24'
p5998
aS'204.79.137.0/24'
p5999
aS'204.80.213.0/24'
p6000
aS'204.80.222.0/24'
p6001
aS'204.87.160.0/24'
p6002
aS'204.87.198.0/24'
p6003
aS'204.87.210.0/24'
p6004
aS'204.90.69.0/24'
p6005
aS'204.90.115.0/24'
p6006
aS'204.107.135.0/24'
p6007
aS'204.111.176.0/23'
p6008
aS'204.115.88.0/21'
p6009
aS'204.124.160.0/22'
p6010
aS'204.124.174.0/23'
p6011
aS'204.124.208.0/24'
p6012
aS'204.126.2.0/23'
p6013
aS'204.126.122.0/23'
p6014
aS'204.126.252.0/24'
p6015
aS'204.127.128.0/17'
p6016
aS'204.128.208.0/24'
p6017
aS'204.128.226.0/24'
p6018
aS'204.130.224.0/24'
p6019
aS'204.136.32.0/19'
p6020
aS'204.145.129.0/24'
p6021
aS'204.145.130.0/24'
p6022
aS'204.145.131.0/24'
p6023
aS'204.145.134.0/24'
p6024
aS'204.145.135.0/24'
p6025
aS'204.146.0.0/16'
p6026
aS'204.146.52.0/24'
p6027
aS'204.146.177.0/24'
p6028
aS'204.146.180.0/24'
p6029
aS'204.152.110.0/24'
p6030
aS'204.154.45.0/24'
p6031
aS'204.154.176.0/21'
p6032
aS'204.154.183.0/24'
p6033
aS'204.154.185.0/24'
p6034
aS'204.155.32.0/20'
p6035
aS'204.155.96.0/20'
p6036
aS'204.155.98.0/24'
p6037
aS'204.155.99.0/24'
p6038
aS'204.159.108.0/22'
p6039
aS'204.238.109.0/24'
p6040
aS'204.238.234.0/24'
p6041
aS'205.137.187.0/24'
p6042
aS'205.141.240.0/20'
p6043
aS'205.142.62.0/24'
p6044
aS'205.143.144.0/22'
p6045
aS'205.144.144.0/24'
p6046
aS'205.159.15.0/24'
p6047
aS'205.159.151.0/24'
p6048
aS'205.167.68.0/24'
p6049
aS'205.167.69.0/24'
p6050
aS'205.167.255.0/24'
p6051
aS'205.172.136.0/22'
p6052
aS'205.172.139.0/24'
p6053
aS'205.173.118.0/24'
p6054
aS'205.173.119.0/24'
p6055
aS'205.201.111.0/24'
p6056
aS'205.207.141.0/24'
p6057
aS'205.235.115.0/24'
p6058
aS'205.235.116.0/24'
p6059
aS'205.235.230.0/24'
p6060
aS'205.245.80.0/24'
p6061
aS'206.13.0.0/17'
p6062
aS'206.16.0.0/14'
p6063
aS'206.71.16.0/20'
p6064
aS'206.121.0.0/16'
p6065
aS'206.124.48.0/21'
p6066
aS'206.124.56.0/21'
p6067
aS'206.125.176.0/24'
p6068
aS'206.125.177.0/24'
p6069
aS'206.125.178.0/24'
p6070
aS'206.125.179.0/24'
p6071
aS'206.125.180.0/24'
p6072
aS'206.125.181.0/24'
p6073
aS'206.170.0.0/15'
p6074
aS'206.184.180.0/24'
p6075
aS'206.193.128.0/24'
p6076
aS'206.202.80.0/21'
p6077
aS'206.202.88.0/21'
p6078
aS'206.208.253.0/24'
p6079
aS'206.208.255.0/24'
p6080
aS'206.209.166.0/24'
p6081
aS'206.210.30.0/24'
p6082
aS'206.220.28.0/24'
p6083
aS'206.220.30.0/24'
p6084
aS'206.223.49.0/24'
p6085
aS'206.223.80.0/24'
p6086
aS'206.255.174.0/23'
p6087
aS'206.255.176.0/21'
p6088
aS'206.255.184.0/22'
p6089
aS'206.255.253.0/24'
p6090
aS'207.21.185.0/24'
p6091
aS'207.27.253.0/24'
p6092
aS'207.63.104.0/24'
p6093
aS'207.67.43.0/24'
p6094
aS'207.67.75.0/24'
p6095
aS'207.104.0.0/15'
p6096
aS'207.140.0.0/15'
p6097
aS'207.145.200.0/21'
p6098
aS'207.145.232.0/21'
p6099
aS'207.193.0.0/16'
p6100
aS'207.212.0.0/14'
p6101
aS'207.242.0.0/15'
p6102
aS'207.242.216.0/24'
p6103
aS'207.250.28.0/24'
p6104
aS'207.250.224.0/22'
p6105
aS'207.252.0.0/16'
p6106
aS'208.2.140.0/24'
p6107
aS'208.13.93.0/24'
p6108
aS'208.30.148.0/22'
p6109
aS'208.65.59.0/24'
p6110
aS'208.66.56.0/22'
p6111
aS'208.69.47.0/24'
p6112
aS'208.69.96.0/21'
p6113
aS'208.70.224.0/22'
p6114
aS'208.84.108.0/24'
p6115
aS'208.101.210.0/24'
p6116
aS'208.101.211.0/24'
p6117
aS'208.101.229.0/24'
p6118
aS'208.101.230.0/24'
p6119
aS'208.188.0.0/14'
p6120
aS'209.30.0.0/16'
p6121
aS'209.33.10.0/24'
p6122
aS'209.33.11.0/24'
p6123
aS'209.33.16.0/24'
p6124
aS'209.33.67.0/24'
p6125
aS'209.33.78.0/24'
p6126
aS'209.33.88.0/24'
p6127
aS'209.33.102.0/24'
p6128
aS'209.36.0.0/15'
p6129
aS'209.40.208.0/20'
p6130
aS'209.54.84.0/22'
p6131
aS'209.64.0.0/15'
p6132
aS'209.66.246.0/23'
p6133
aS'209.78.58.0/24'
p6134
aS'209.80.66.0/23'
p6135
aS'209.80.80.0/24'
p6136
aS'209.82.219.0/24'
p6137
aS'209.101.64.0/21'
p6138
aS'209.129.90.0/24'
p6139
aS'209.169.224.0/19'
p6140
aS'209.184.0.0/16'
p6141
aS'209.186.0.0/15'
p6142
aS'209.232.0.0/15'
p6143
aS'216.9.224.0/20'
p6144
aS'216.10.235.0/24'
p6145
aS'216.12.191.0/24'
p6146
aS'216.40.48.0/20'
p6147
aS'216.60.0.0/14'
p6148
aS'216.101.236.0/24'
p6149
aS'216.101.237.0/24'
p6150
aS'216.106.140.0/22'
p6151
aS'216.106.144.0/22'
p6152
aS'216.106.152.0/21'
p6153
aS'216.116.224.0/19'
p6154
aS'216.125.6.0/23'
p6155
aS'216.125.8.0/21'
p6156
aS'216.132.156.0/24'
p6157
aS'216.133.172.0/22'
p6158
aS'216.148.0.0/16'
p6159
aS'216.163.125.0/24'
p6160
aS'216.163.126.0/24'
p6161
aS'216.198.101.0/24'
p6162
aS'216.198.104.0/24'
p6163
aS'216.222.208.0/22'
p6164
aS'216.227.4.0/24'
p6165
aS'216.227.34.0/24'
p6166
aS'216.227.71.0/24'
p6167
aS'216.227.84.0/24'
p6168
aS'216.227.121.0/24'
p6169
aS'216.241.82.0/24'
p6170
aS'216.248.208.0/20'
p6171
aS'217.28.163.0/24'
p6172
aa.(lp0
(lp1
S'159.49.46.0/24'
p2
aS'159.49.47.0/24'
p3
aS'159.49.240.0/24'
p4
aS'159.49.241.0/24'
p5
aS'159.49.251.0/24'
p6
aS'159.49.253.0/24'
p7
aS'159.49.254.0/24'
p8
aa(lp9
S'206.81.220.0/24'
p10
aS'206.81.221.0/24'
p11
aS'206.81.222.0/24'
p12
aS'206.81.223.0/24'
p13
aa(lp14
S'66.150.0.0/22'
p15
aS'66.150.4.0/24'
p16
aS'72.53.192.0/21'
p17
aS'72.53.199.0/24'
p18
aS'72.53.200.0/22'
p19
aS'72.53.204.0/24'
p20
aS'72.53.205.0/24'
p21
aS'72.53.253.0/24'
p22
aS'72.53.254.0/23'
p23
aa(lp24
S'66.203.112.0/20'
p25
aS'204.71.154.0/24'
p26
aS'205.219.198.0/23'
p27
aS'206.100.168.0/23'
p28
aS'207.188.0.0/19'
p29
aS'208.147.88.0/21'
p30
aS'209.210.138.0/24'
p31
aS'216.190.76.0/22'
p32
aa(lp33
S'63.135.48.0/20'
p34
aS'63.135.50.0/24'
p35
aS'63.135.51.0/24'
p36
aS'63.135.52.0/24'
p37
aS'63.135.53.0/24'
p38
aS'63.135.55.0/24'
p39
aS'63.135.56.0/21'
p40
aS'63.142.208.0/20'
p41
aS'63.142.208.0/24'
p42
aS'63.142.209.0/24'
p43
aS'63.142.210.0/24'
p44
aS'63.142.211.0/24'
p45
aS'63.142.212.0/24'
p46
aS'63.142.213.0/24'
p47
aS'63.142.214.0/24'
p48
aS'63.142.215.0/24'
p49
aS'63.142.216.0/24'
p50
aS'63.142.217.0/24'
p51
aS'63.142.218.0/24'
p52
aS'63.142.220.0/24'
p53
aS'63.142.221.0/24'
p54
aS'63.142.222.0/24'
p55
aS'63.142.223.0/24'
p56
aS'64.20.96.0/24'
p57
aS'64.20.97.0/24'
p58
aS'64.20.99.0/24'
p59
aS'64.20.102.0/24'
p60
aS'64.20.103.0/24'
p61
aS'66.172.96.0/19'
p62
aS'66.172.96.0/23'
p63
aS'66.172.98.0/23'
p64
aS'66.172.100.0/24'
p65
aS'66.172.101.0/24'
p66
aS'66.172.102.0/24'
p67
aS'66.172.103.0/24'
p68
aS'66.172.105.0/24'
p69
aS'66.172.106.0/23'
p70
aS'66.172.108.0/22'
p71
aS'66.172.112.0/24'
p72
aS'66.172.113.0/24'
p73
aS'66.172.114.0/23'
p74
aS'66.172.116.0/22'
p75
aS'66.172.120.0/22'
p76
aS'66.172.124.0/23'
p77
aS'66.172.126.0/24'
p78
aS'66.172.127.0/24'
p79
aS'96.46.16.0/20'
p80
aS'96.46.16.0/21'
p81
aS'96.46.24.0/22'
p82
aS'96.46.28.0/22'
p83
aS'173.209.160.0/20'
p84
aS'173.209.160.0/21'
p85
aS'173.209.168.0/24'
p86
aS'173.209.169.0/24'
p87
aS'173.209.170.0/24'
p88
aS'173.209.171.0/24'
p89
aS'173.209.172.0/24'
p90
aS'173.209.174.0/24'
p91
aS'199.36.88.0/21'
p92
aS'199.244.28.0/22'
p93
aS'199.244.28.0/24'
p94
aS'199.244.30.0/23'
p95
aS'206.130.128.0/20'
p96
aS'206.130.128.0/24'
p97
aS'206.130.129.0/24'
p98
aS'206.130.132.0/24'
p99
aS'206.130.134.0/24'
p100
aS'206.130.135.0/24'
p101
aS'206.130.138.0/24'
p102
aS'206.130.139.0/24'
p103
aS'206.130.140.0/22'
p104
aS'216.178.61.0/24'
p105
aa(lp106
S'216.220.192.0/24'
p107
aS'216.220.193.0/24'
p108
aS'216.220.195.0/24'
p109
aS'216.220.200.0/24'
p110
aS'216.220.202.0/24'
p111
aa(lp112
S'12.144.132.0/22'
p113
aS'136.184.16.0/20'
p114
aS'136.184.48.0/20'
p115
aS'136.184.128.0/20'
p116
aS'136.184.144.0/20'
p117
aS'143.115.254.0/23'
p118
aS'198.8.128.0/19'
p119
aS'216.148.102.0/24'
p120
aa(lp121
S'64.94.96.0/24'
p122
aS'69.25.81.0/24'
p123
aa(lp124
S'64.74.6.0/24'
p125
aa(lp126
S'64.74.16.0/22'
p127
aS'64.94.128.0/22'
p128
aS'64.95.180.0/22'
p129
aS'204.201.25.0/24'
p130
aS'206.191.182.0/23'
p131
aS'209.191.180.0/24'
p132
aS'216.223.16.0/23'
p133
aS'216.223.17.0/24'
p134
aS'216.223.18.0/24'
p135
aa(lp136
S'65.127.163.0/24'
p137
aS'173.195.224.0/20'
p138
aS'173.195.224.0/24'
p139
aS'173.195.225.0/24'
p140
aS'173.195.231.0/24'
p141
aS'173.195.232.0/24'
p142
aS'173.195.237.0/24'
p143
aa(lp144
S'146.79.0.0/16'
p145
aS'146.79.231.0/24'
p146
aS'146.79.244.0/24'
p147
aS'146.79.245.0/24'
p148
aa(lp149
S'208.77.152.0/23'
p150
aS'208.77.154.0/24'
p151
aS'208.77.155.0/24'
p152
aa(lp153
S'208.84.40.0/22'
p154
aS'208.84.46.0/24'
p155
aS'208.84.47.0/24'
p156
aa(lp157
S'160.69.0.0/23'
p158
aS'160.69.3.0/24'
p159
aa(lp160
S'64.90.112.0/23'
p161
aS'64.90.114.0/23'
p162
aS'64.90.116.0/23'
p163
aa(lp164
a(lp165
S'71.19.224.0/22'
p166
aS'71.19.228.0/22'
p167
aS'71.19.232.0/22'
p168
aS'71.19.236.0/23'
p169
aS'71.19.238.0/24'
p170
aS'192.64.72.0/22'
p171
aS'192.64.76.0/22'
p172
aS'204.11.16.0/22'
p173
aS'204.11.96.0/24'
p174
aS'204.11.97.0/24'
p175
aS'204.11.98.0/24'
p176
aS'204.11.99.0/24'
p177
aS'204.11.101.0/24'
p178
aS'204.11.102.0/24'
p179
aS'204.11.103.0/24'
p180
aS'207.14.35.0/24'
p181
aS'208.65.200.0/22'
p182
aS'208.87.92.0/24'
p183
aa(lp184
S'12.110.80.0/23'
p185
aS'12.179.128.0/24'
p186
aS'64.74.7.0/24'
p187
aS'64.95.175.0/24'
p188
aS'134.242.40.0/23'
p189
aS'134.242.42.0/23'
p190
aS'134.242.44.0/24'
p191
aS'134.242.100.0/24'
p192
aS'134.242.101.0/24'
p193
aS'204.16.96.0/24'
p194
aS'204.16.97.0/24'
p195
aS'204.16.98.0/24'
p196
aS'204.16.99.0/24'
p197
aa(lp198
S'64.95.172.0/23'
p199
aa(lp200
S'64.75.31.0/24'
p201
aS'198.76.161.0/24'
p202
aS'206.124.121.0/24'
p203
aS'216.136.156.0/24'
p204
aa(lp205
S'65.249.42.0/23'
p206
aS'199.242.56.0/21'
p207
aa(lp208
S'64.79.201.0/24'
p209
aS'64.79.202.0/23'
p210
aS'64.79.212.0/24'
p211
aS'66.249.2.0/24'
p212
aS'66.249.6.0/24'
p213
aS'66.249.26.0/23'
p214
aS'74.121.184.0/21'
p215
aS'74.121.190.0/24'
p216
aS'74.121.191.0/24'
p217
aS'76.191.81.0/24'
p218
aS'76.191.82.0/24'
p219
aS'76.191.83.0/24'
p220
aS'192.34.108.0/22'
p221
aS'192.34.108.0/24'
p222
aS'192.34.109.0/24'
p223
aS'192.34.110.0/24'
p224
aS'192.34.111.0/24'
p225
aS'208.115.96.0/19'
p226
aS'208.115.102.0/24'
p227
aS'208.115.107.0/24'
p228
aS'208.115.109.0/24'
p229
aS'208.115.111.0/24'
p230
aS'208.115.112.0/24'
p231
aS'208.115.113.0/24'
p232
aS'208.115.117.0/24'
p233
aS'208.115.124.0/24'
p234
aS'208.115.125.0/24'
p235
aS'209.40.200.0/24'
p236
aS'216.176.176.0/20'
p237
aS'216.176.177.0/24'
p238
aS'216.176.178.0/24'
p239
aS'216.176.185.0/24'
p240
aS'216.176.189.0/24'
p241
aS'216.176.190.0/24'
p242
aS'216.244.64.0/19'
p243
aS'216.244.65.0/24'
p244
aS'216.244.68.0/24'
p245
aS'216.244.71.0/24'
p246
aS'216.244.73.0/24'
p247
aS'216.244.74.0/24'
p248
aS'216.244.75.0/24'
p249
aS'216.244.76.0/24'
p250
aS'216.244.77.0/24'
p251
aS'216.244.78.0/24'
p252
aS'216.244.79.0/24'
p253
aS'216.244.80.0/24'
p254
aS'216.244.81.0/24'
p255
aS'216.244.82.0/23'
p256
aS'216.244.84.0/22'
p257
aS'216.244.93.0/24'
p258
aS'216.244.95.0/24'
p259
aa(lp260
S'63.251.12.0/25'
p261
aS'66.80.99.0/24'
p262
aS'216.132.227.0/24'
p263
aa(lp264
S'69.8.196.0/22'
p265
aS'199.33.216.0/24'
p266
aa(lp267
S'31.186.252.0/24'
p268
aS'63.251.95.0/24'
p269
aS'63.251.164.192/26'
p270
aS'64.7.198.0/23'
p271
aS'64.7.201.0/24'
p272
aS'64.94.107.0/24'
p273
aS'64.94.142.128/25'
p274
aS'64.94.186.0/24'
p275
aS'64.95.32.0/24'
p276
aS'64.95.33.0/24'
p277
aS'64.95.36.0/22'
p278
aS'66.150.48.0/24'
p279
aS'66.150.118.0/24'
p280
aS'69.25.252.0/25'
p281
aS'70.42.104.0/24'
p282
aS'70.42.160.0/24'
p283
aS'72.5.114.0/24'
p284
aS'72.5.205.0/24'
p285
aS'74.217.63.0/24'
p286
aS'91.228.72.0/22'
p287
aS'91.228.75.0/24'
p288
aS'95.172.94.0/24'
p289
aS'119.59.75.0/24'
p290
aS'192.184.64.0/20'
p291
aS'203.190.124.0/24'
p292
aS'216.52.112.0/24'
p293
aa(lp294
S'66.150.171.0/24'
p295
aa(lp296
S'72.5.214.0/24'
p297
aS'206.124.112.0/21'
p298
aS'206.124.118.0/24'
p299
aS'206.124.119.0/24'
p300
aS'206.124.120.0/22'
p301
aS'206.124.120.0/24'
p302
aa(lp303
S'66.150.164.0/24'
p304
aS'74.91.117.0/24'
p305
aS'162.248.94.0/24'
p306
aS'192.223.25.0/24'
p307
aS'208.146.35.0/24'
p308
aS'208.146.44.0/24'
p309
aa(lp310
S'31.187.66.0/24'
p311
aS'103.6.84.0/24'
p312
aS'103.6.85.0/24'
p313
aS'103.6.86.0/24'
p314
aS'103.6.87.0/24'
p315
aS'103.30.213.0/24'
p316
aS'151.236.20.0/24'
p317
aS'158.255.208.0/24'
p318
aS'162.248.220.0/24'
p319
aS'162.248.221.0/24'
p320
aS'162.248.222.0/24'
p321
aS'162.248.223.0/24'
p322
aS'162.252.207.0/24'
p323
aS'176.58.88.0/24'
p324
aS'176.58.89.0/24'
p325
aS'176.58.90.0/24'
p326
aS'176.58.92.0/24'
p327
aS'176.58.93.0/24'
p328
aS'176.58.94.0/24'
p329
aS'176.58.95.0/24'
p330
aS'185.40.232.0/24'
p331
aS'185.40.233.0/24'
p332
aS'185.40.234.0/24'
p333
aS'185.40.235.0/24'
p334
aS'192.73.240.0/24'
p335
aS'192.73.242.0/24'
p336
aS'192.73.243.0/24'
p337
aS'192.73.244.0/24'
p338
aS'192.73.245.0/24'
p339
aS'192.73.246.0/24'
p340
aS'192.73.247.0/24'
p341
aS'192.73.248.0/24'
p342
aS'192.73.249.0/24'
p343
aS'192.73.250.0/24'
p344
aS'192.73.251.0/24'
p345
aS'192.73.252.0/24'
p346
aS'192.73.253.0/24'
p347
aS'192.73.254.0/24'
p348
aS'192.73.255.0/24'
p349
aS'199.38.180.0/24'
p350
aS'199.38.181.0/24'
p351
aS'199.38.182.0/24'
p352
aS'199.38.183.0/24'
p353
aS'199.245.61.0/24'
p354
aS'205.147.104.0/24'
p355
aS'205.147.105.0/24'
p356
aS'205.147.106.0/24'
p357
aS'205.147.107.0/24'
p358
aS'205.159.195.0/24'
p359
aS'208.111.32.0/24'
p360
aS'208.111.33.0/24'
p361
aS'208.111.34.0/24'
p362
aS'208.111.35.0/24'
p363
aS'208.111.38.0/24'
p364
aS'208.111.39.0/24'
p365
aS'208.111.40.0/24'
p366
aS'208.111.42.0/24'
p367
aS'208.111.44.0/24'
p368
aS'208.111.45.0/24'
p369
aS'208.111.46.0/24'
p370
aS'208.111.47.0/24'
p371
aS'209.177.144.0/24'
p372
aS'209.177.145.0/24'
p373
aS'209.177.146.0/24'
p374
aS'209.177.147.0/24'
p375
aS'209.177.148.0/24'
p376
aS'209.177.149.0/24'
p377
aS'209.177.150.0/24'
p378
aS'209.177.152.0/24'
p379
aS'209.177.153.0/24'
p380
aS'209.177.154.0/24'
p381
aS'209.177.155.0/24'
p382
aS'209.177.156.0/24'
p383
aS'209.177.157.0/24'
p384
aS'209.177.158.0/24'
p385
aS'209.177.159.0/24'
p386
aa(lp387
S'70.42.170.0/24'
p388
aS'204.152.6.0/23'
p389
aS'204.152.6.0/24'
p390
aS'204.152.7.0/24'
p391
aS'208.185.208.0/24'
p392
aa(lp393
S'64.74.23.0/24'
p394
aS'64.85.76.0/24'
p395
aS'204.107.168.0/24'
p396
aS'207.109.84.0/24'
p397
aa(lp398
S'67.135.36.0/24'
p399
aS'74.114.40.0/24'
p400
aS'74.114.41.0/24'
p401
aS'207.225.232.0/24'
p402
aa(lp403
S'74.116.104.0/24'
p404
aS'74.116.105.0/24'
p405
aS'74.116.106.0/24'
p406
aS'74.116.108.0/24'
p407
aS'74.116.109.0/24'
p408
aS'74.116.111.0/24'
p409
aS'93.174.168.0/24'
p410
aS'93.174.169.0/24'
p411
aS'93.174.170.0/24'
p412
aS'93.174.171.0/24'
p413
aS'93.174.172.0/24'
p414
aS'198.17.50.0/24'
p415
aS'198.17.51.0/24'
p416
aa(lp417
S'199.48.92.0/24'
p418
aS'199.48.93.0/24'
p419
aa(lp420
S'5.45.56.0/21'
p421
aS'77.234.40.0/24'
p422
aS'77.234.41.0/24'
p423
aS'77.234.42.0/24'
p424
aS'77.234.43.0/24'
p425
aS'77.234.44.0/24'
p426
aS'77.234.45.0/24'
p427
aS'77.234.46.0/24'
p428
aa.(lp0
(lp1
S'192.75.204.0/24'
p2
aS'192.75.205.0/24'
p3
aS'199.212.114.0/24'
p4
aS'199.212.115.0/24'
p5
aS'199.212.116.0/24'
p6
aS'199.212.117.0/24'
p7
aS'205.211.94.0/23'
p8
aS'205.211.94.0/24'
p9
aS'205.211.95.0/24'
p10
aa.