(lp0
(lp1
S'206.252.192.0/19'
p2
aS'207.251.64.0/18'
p3
aa.(lp0
(lp1
S'5.83.240.0/20'
p2
aS'5.149.252.0/23'
p3
aS'23.251.224.0/19'
p4
aS'24.104.32.0/21'
p5
aS'24.204.160.0/19'
p6
aS'24.238.0.0/24'
p7
aS'24.238.2.0/24'
p8
aS'24.238.12.0/22'
p9
aS'24.238.98.0/23'
p10
aS'24.238.100.0/22'
p11
aS'24.238.104.0/22'
p12
aS'24.238.110.0/23'
p13
aS'24.238.112.0/22'
p14
aS'31.211.184.0/21'
p15
aS'37.143.120.0/21'
p16
aS'37.157.32.0/21'
p17
aS'37.208.80.0/21'
p18
aS'37.235.36.0/22'
p19
aS'37.235.40.0/21'
p20
aS'37.247.120.0/22'
p21
aS'37.247.124.0/22'
p22
aS'38.0.0.0/8'
p23
aS'38.2.119.0/24'
p24
aS'38.2.195.0/24'
p25
aS'38.2.201.0/24'
p26
aS'38.2.204.0/24'
p27
aS'38.5.49.0/24'
p28
aS'38.8.6.0/24'
p29
aS'38.8.48.0/24'
p30
aS'38.9.9.0/24'
p31
aS'38.9.51.0/24'
p32
aS'38.9.79.0/24'
p33
aS'38.9.120.0/24'
p34
aS'38.21.6.0/24'
p35
aS'38.21.13.0/24'
p36
aS'38.21.22.0/24'
p37
aS'38.21.37.0/24'
p38
aS'38.22.7.0/24'
p39
aS'38.22.8.0/24'
p40
aS'38.22.39.0/24'
p41
aS'38.22.53.0/24'
p42
aS'38.22.102.0/24'
p43
aS'38.24.3.0/24'
p44
aS'38.24.25.0/24'
p45
aS'38.25.3.0/24'
p46
aS'38.25.24.0/24'
p47
aS'38.25.37.0/24'
p48
aS'38.64.32.0/22'
p49
aS'38.64.37.0/24'
p50
aS'38.64.38.0/24'
p51
aS'38.64.49.0/24'
p52
aS'38.64.50.0/24'
p53
aS'38.64.67.0/24'
p54
aS'38.64.73.0/24'
p55
aS'38.64.74.0/24'
p56
aS'38.64.75.0/24'
p57
aS'38.64.76.0/22'
p58
aS'38.64.83.0/24'
p59
aS'38.64.132.0/23'
p60
aS'38.64.136.0/23'
p61
aS'38.64.138.0/24'
p62
aS'38.64.139.0/24'
p63
aS'38.64.152.0/24'
p64
aS'38.64.154.0/24'
p65
aS'38.64.162.0/24'
p66
aS'38.64.163.0/24'
p67
aS'38.64.164.0/24'
p68
aS'38.64.165.0/24'
p69
aS'38.64.167.0/24'
p70
aS'38.64.168.0/24'
p71
aS'38.64.169.0/24'
p72
aS'38.64.171.0/24'
p73
aS'38.65.2.0/24'
p74
aS'38.65.4.0/23'
p75
aS'38.65.6.0/24'
p76
aS'38.65.7.0/24'
p77
aS'38.65.9.0/24'
p78
aS'38.65.14.0/24'
p79
aS'38.65.16.0/24'
p80
aS'38.65.17.0/24'
p81
aS'38.65.33.0/24'
p82
aS'38.65.34.0/24'
p83
aS'38.65.35.0/24'
p84
aS'38.65.48.0/24'
p85
aS'38.65.52.0/22'
p86
aS'38.65.68.0/24'
p87
aS'38.65.101.0/24'
p88
aS'38.65.103.0/24'
p89
aS'38.65.110.0/23'
p90
aS'38.65.129.0/24'
p91
aS'38.65.132.0/24'
p92
aS'38.65.133.0/24'
p93
aS'38.65.134.0/24'
p94
aS'38.65.136.0/23'
p95
aS'38.66.68.0/23'
p96
aS'38.66.72.0/24'
p97
aS'38.66.73.0/24'
p98
aS'38.66.74.0/24'
p99
aS'38.66.197.0/24'
p100
aS'38.67.0.0/24'
p101
aS'38.67.2.0/24'
p102
aS'38.67.8.0/23'
p103
aS'38.67.10.0/23'
p104
aS'38.67.12.0/22'
p105
aS'38.67.16.0/23'
p106
aS'38.67.195.0/24'
p107
aS'38.68.0.0/23'
p108
aS'38.68.2.0/24'
p109
aS'38.68.65.0/24'
p110
aS'38.68.66.0/24'
p111
aS'38.68.136.0/21'
p112
aS'38.68.195.0/24'
p113
aS'38.69.0.0/23'
p114
aS'38.69.2.0/24'
p115
aS'38.69.8.0/21'
p116
aS'38.69.16.0/20'
p117
aS'38.69.34.0/23'
p118
aS'38.69.36.0/23'
p119
aS'38.69.40.0/23'
p120
aS'38.69.44.0/24'
p121
aS'38.69.48.0/22'
p122
aS'38.69.56.0/24'
p123
aS'38.69.57.0/24'
p124
aS'38.69.58.0/23'
p125
aS'38.69.60.0/22'
p126
aS'38.69.132.0/23'
p127
aS'38.69.144.0/21'
p128
aS'38.69.156.0/23'
p129
aS'38.69.160.0/21'
p130
aS'38.69.192.0/23'
p131
aS'38.69.194.0/24'
p132
aS'38.69.196.0/22'
p133
aS'38.70.1.0/24'
p134
aS'38.70.2.0/23'
p135
aS'38.70.9.0/24'
p136
aS'38.70.12.0/24'
p137
aS'38.70.13.0/24'
p138
aS'38.70.14.0/24'
p139
aS'38.70.19.0/24'
p140
aS'38.71.1.0/24'
p141
aS'38.71.3.0/24'
p142
aS'38.71.5.0/24'
p143
aS'38.71.65.0/24'
p144
aS'38.71.66.0/23'
p145
aS'38.71.68.0/24'
p146
aS'38.71.194.0/24'
p147
aS'38.72.68.0/24'
p148
aS'38.72.77.0/24'
p149
aS'38.72.97.0/24'
p150
aS'38.72.98.0/23'
p151
aS'38.72.98.0/24'
p152
aS'38.72.100.0/24'
p153
aS'38.72.129.0/24'
p154
aS'38.72.192.0/24'
p155
aS'38.72.194.0/24'
p156
aS'38.72.195.0/24'
p157
aS'38.72.198.0/24'
p158
aS'38.72.199.0/24'
p159
aS'38.72.204.0/24'
p160
aS'38.72.205.0/24'
p161
aS'38.72.206.0/24'
p162
aS'38.73.2.0/24'
p163
aS'38.73.96.0/24'
p164
aS'38.73.129.0/24'
p165
aS'38.73.132.0/23'
p166
aS'38.73.140.0/23'
p167
aS'38.73.142.0/23'
p168
aS'38.73.144.0/21'
p169
aS'38.73.152.0/23'
p170
aS'38.73.156.0/22'
p171
aS'38.74.1.0/24'
p172
aS'38.74.16.0/20'
p173
aS'38.74.132.0/22'
p174
aS'38.74.138.0/24'
p175
aS'38.74.139.0/24'
p176
aS'38.74.140.0/23'
p177
aS'38.74.144.0/24'
p178
aS'38.74.145.0/24'
p179
aS'38.75.2.0/24'
p180
aS'38.75.4.0/23'
p181
aS'38.75.13.0/24'
p182
aS'38.75.15.0/24'
p183
aS'38.75.21.0/24'
p184
aS'38.75.22.0/24'
p185
aS'38.75.25.0/24'
p186
aS'38.75.29.0/24'
p187
aS'38.75.32.0/22'
p188
aS'38.75.130.0/24'
p189
aS'38.75.134.0/23'
p190
aS'38.75.196.0/23'
p191
aS'38.76.66.0/24'
p192
aS'38.76.73.0/24'
p193
aS'38.76.129.0/24'
p194
aS'38.77.16.0/21'
p195
aS'38.77.128.0/23'
p196
aS'38.77.200.0/23'
p197
aS'38.78.72.0/21'
p198
aS'38.78.130.0/24'
p199
aS'38.78.131.0/24'
p200
aS'38.78.208.0/20'
p201
aS'38.79.3.0/24'
p202
aS'38.79.65.0/24'
p203
aS'38.79.66.0/24'
p204
aS'38.79.68.0/23'
p205
aS'38.80.0.0/24'
p206
aS'38.80.3.0/24'
p207
aS'38.80.4.0/23'
p208
aS'38.80.64.0/23'
p209
aS'38.80.67.0/24'
p210
aS'38.80.68.0/23'
p211
aS'38.80.74.0/24'
p212
aS'38.80.75.0/24'
p213
aS'38.80.84.0/22'
p214
aS'38.80.128.0/21'
p215
aS'38.80.136.0/22'
p216
aS'38.80.144.0/20'
p217
aS'38.80.164.0/24'
p218
aS'38.80.200.0/21'
p219
aS'38.81.33.0/24'
p220
aS'38.81.64.0/24'
p221
aS'38.81.66.0/23'
p222
aS'38.81.129.0/24'
p223
aS'38.81.130.0/23'
p224
aS'38.81.197.0/24'
p225
aS'38.81.198.0/24'
p226
aS'38.82.192.0/23'
p227
aS'38.82.196.0/22'
p228
aS'38.82.200.0/22'
p229
aS'38.82.204.0/23'
p230
aS'38.82.206.0/23'
p231
aS'38.82.216.0/23'
p232
aS'38.82.218.0/23'
p233
aS'38.82.221.0/24'
p234
aS'38.82.223.0/24'
p235
aS'38.82.227.0/24'
p236
aS'38.83.74.0/24'
p237
aS'38.83.101.0/24'
p238
aS'38.83.136.0/21'
p239
aS'38.83.193.0/24'
p240
aS'38.83.194.0/24'
p241
aS'38.84.35.0/24'
p242
aS'38.84.38.0/24'
p243
aS'38.84.65.0/24'
p244
aS'38.84.70.0/24'
p245
aS'38.84.129.0/24'
p246
aS'38.84.130.0/23'
p247
aS'38.84.134.0/24'
p248
aS'38.84.135.0/24'
p249
aS'38.84.136.0/24'
p250
aS'38.84.162.0/24'
p251
aS'38.84.224.0/24'
p252
aS'38.85.0.0/17'
p253
aS'38.85.16.0/24'
p254
aS'38.86.0.0/24'
p255
aS'38.86.36.0/22'
p256
aS'38.86.64.0/22'
p257
aS'38.86.74.0/23'
p258
aS'38.86.96.0/23'
p259
aS'38.86.133.0/24'
p260
aS'38.86.140.0/23'
p261
aS'38.86.174.0/23'
p262
aS'38.86.225.0/24'
p263
aS'38.87.34.0/24'
p264
aS'38.87.40.0/23'
p265
aS'38.87.82.0/24'
p266
aS'38.87.83.0/24'
p267
aS'38.88.24.0/21'
p268
aS'38.88.65.0/24'
p269
aS'38.88.66.0/24'
p270
aS'38.89.0.0/22'
p271
aS'38.89.8.0/22'
p272
aS'38.89.32.0/23'
p273
aS'38.89.98.0/24'
p274
aS'38.89.100.0/23'
p275
aS'38.89.129.0/24'
p276
aS'38.89.130.0/24'
p277
aS'38.89.160.0/24'
p278
aS'38.89.161.0/24'
p279
aS'38.89.163.0/24'
p280
aS'38.89.193.0/24'
p281
aS'38.89.226.0/24'
p282
aS'38.89.227.0/24'
p283
aS'38.89.235.0/24'
p284
aS'38.89.236.0/24'
p285
aS'38.90.33.0/24'
p286
aS'38.90.65.0/24'
p287
aS'38.90.96.0/24'
p288
aS'38.90.132.0/22'
p289
aS'38.90.136.0/24'
p290
aS'38.90.137.0/24'
p291
aS'38.90.138.0/24'
p292
aS'38.90.139.0/24'
p293
aS'38.90.192.0/23'
p294
aS'38.91.64.0/24'
p295
aS'38.91.66.0/23'
p296
aS'38.91.102.0/23'
p297
aS'38.91.104.0/23'
p298
aS'38.91.112.0/20'
p299
aS'38.91.129.0/24'
p300
aS'38.91.194.0/24'
p301
aS'38.92.97.0/24'
p302
aS'38.92.112.0/21'
p303
aS'38.92.134.0/24'
p304
aS'38.92.136.0/24'
p305
aS'38.92.138.0/24'
p306
aS'38.93.97.0/24'
p307
aS'38.93.128.0/24'
p308
aS'38.93.132.0/22'
p309
aS'38.93.193.0/24'
p310
aS'38.93.228.0/24'
p311
aS'38.93.229.0/24'
p312
aS'38.93.230.0/23'
p313
aS'38.93.232.0/24'
p314
aS'38.94.1.0/24'
p315
aS'38.94.36.0/22'
p316
aS'38.94.137.0/24'
p317
aS'38.94.144.0/22'
p318
aS'38.94.149.0/24'
p319
aS'38.95.32.0/23'
p320
aS'38.95.65.0/24'
p321
aS'38.95.225.0/24'
p322
aS'38.95.227.0/24'
p323
aS'38.95.229.0/24'
p324
aS'38.95.230.0/24'
p325
aS'38.95.231.0/24'
p326
aS'38.95.232.0/24'
p327
aS'38.95.233.0/24'
p328
aS'38.95.234.0/24'
p329
aS'38.95.235.0/24'
p330
aS'38.96.0.0/24'
p331
aS'38.96.1.0/24'
p332
aS'38.96.9.0/24'
p333
aS'38.96.11.0/24'
p334
aS'38.96.12.0/24'
p335
aS'38.96.16.0/23'
p336
aS'38.96.18.0/24'
p337
aS'38.96.22.0/24'
p338
aS'38.96.24.0/23'
p339
aS'38.96.26.0/23'
p340
aS'38.96.28.0/22'
p341
aS'38.96.32.0/20'
p342
aS'38.96.136.0/22'
p343
aS'38.96.144.0/24'
p344
aS'38.96.146.0/24'
p345
aS'38.96.147.0/24'
p346
aS'38.96.150.0/24'
p347
aS'38.96.156.0/22'
p348
aS'38.96.162.0/24'
p349
aS'38.96.166.0/24'
p350
aS'38.96.179.0/24'
p351
aS'38.96.189.0/24'
p352
aS'38.96.194.0/24'
p353
aS'38.96.198.0/23'
p354
aS'38.96.205.0/24'
p355
aS'38.96.206.0/23'
p356
aS'38.96.208.0/24'
p357
aS'38.96.214.0/23'
p358
aS'38.96.232.0/21'
p359
aS'38.96.240.0/24'
p360
aS'38.96.248.0/21'
p361
aS'38.97.6.0/23'
p362
aS'38.97.8.0/21'
p363
aS'38.97.24.0/22'
p364
aS'38.97.73.0/24'
p365
aS'38.97.77.0/24'
p366
aS'38.97.85.0/24'
p367
aS'38.97.101.0/24'
p368
aS'38.97.108.0/24'
p369
aS'38.97.115.0/24'
p370
aS'38.97.117.0/24'
p371
aS'38.97.125.0/24'
p372
aS'38.97.195.0/24'
p373
aS'38.97.228.0/22'
p374
aS'38.97.236.0/24'
p375
aS'38.98.8.0/24'
p376
aS'38.98.12.0/24'
p377
aS'38.98.13.0/24'
p378
aS'38.98.15.0/24'
p379
aS'38.98.16.0/24'
p380
aS'38.98.17.0/24'
p381
aS'38.98.22.0/24'
p382
aS'38.98.24.0/24'
p383
aS'38.98.25.0/24'
p384
aS'38.98.26.0/24'
p385
aS'38.98.27.0/24'
p386
aS'38.98.28.0/24'
p387
aS'38.98.29.0/24'
p388
aS'38.98.30.0/24'
p389
aS'38.98.31.0/24'
p390
aS'38.98.32.0/24'
p391
aS'38.98.33.0/24'
p392
aS'38.98.39.0/24'
p393
aS'38.98.40.0/24'
p394
aS'38.98.45.0/24'
p395
aS'38.98.46.0/23'
p396
aS'38.98.57.0/24'
p397
aS'38.98.59.0/24'
p398
aS'38.98.65.0/24'
p399
aS'38.98.93.0/24'
p400
aS'38.98.98.0/24'
p401
aS'38.98.114.0/24'
p402
aS'38.98.116.0/24'
p403
aS'38.98.124.0/24'
p404
aS'38.98.126.0/24'
p405
aS'38.98.146.0/24'
p406
aS'38.98.158.0/23'
p407
aS'38.98.164.0/23'
p408
aS'38.98.168.0/22'
p409
aS'38.98.174.0/24'
p410
aS'38.98.178.0/24'
p411
aS'38.98.181.0/24'
p412
aS'38.98.187.0/24'
p413
aS'38.98.188.0/22'
p414
aS'38.98.198.0/23'
p415
aS'38.98.200.0/22'
p416
aS'38.98.206.0/23'
p417
aS'38.98.216.0/24'
p418
aS'38.98.222.0/24'
p419
aS'38.98.241.0/24'
p420
aS'38.98.250.0/24'
p421
aS'38.99.0.0/24'
p422
aS'38.99.11.0/24'
p423
aS'38.99.19.0/24'
p424
aS'38.99.20.0/24'
p425
aS'38.99.28.0/24'
p426
aS'38.99.36.0/24'
p427
aS'38.99.41.0/24'
p428
aS'38.99.55.0/24'
p429
aS'38.99.57.0/24'
p430
aS'38.99.61.0/24'
p431
aS'38.99.82.0/24'
p432
aS'38.99.83.0/24'
p433
aS'38.99.88.0/22'
p434
aS'38.99.103.0/24'
p435
aS'38.99.106.0/24'
p436
aS'38.99.112.0/24'
p437
aS'38.99.113.0/24'
p438
aS'38.99.120.0/22'
p439
aS'38.99.124.0/24'
p440
aS'38.99.125.0/24'
p441
aS'38.99.135.0/24'
p442
aS'38.99.139.0/24'
p443
aS'38.99.154.0/24'
p444
aS'38.99.164.0/24'
p445
aS'38.99.168.0/22'
p446
aS'38.99.174.0/24'
p447
aS'38.99.178.0/24'
p448
aS'38.99.180.0/22'
p449
aS'38.99.188.0/24'
p450
aS'38.99.190.0/24'
p451
aS'38.99.225.0/24'
p452
aS'38.99.232.0/22'
p453
aS'38.99.237.0/24'
p454
aS'38.99.240.0/24'
p455
aS'38.99.245.0/24'
p456
aS'38.99.247.0/24'
p457
aS'38.99.252.0/22'
p458
aS'38.100.4.0/23'
p459
aS'38.100.9.0/24'
p460
aS'38.100.10.0/24'
p461
aS'38.100.12.0/24'
p462
aS'38.100.23.0/24'
p463
aS'38.100.30.0/24'
p464
aS'38.100.37.0/24'
p465
aS'38.100.54.0/24'
p466
aS'38.100.56.0/24'
p467
aS'38.100.57.0/24'
p468
aS'38.100.60.0/24'
p469
aS'38.100.65.0/24'
p470
aS'38.100.67.0/24'
p471
aS'38.100.74.0/24'
p472
aS'38.100.76.0/24'
p473
aS'38.100.78.0/23'
p474
aS'38.100.80.0/24'
p475
aS'38.100.86.0/23'
p476
aS'38.100.111.0/24'
p477
aS'38.100.117.0/24'
p478
aS'38.100.121.0/24'
p479
aS'38.100.126.0/23'
p480
aS'38.100.132.0/23'
p481
aS'38.100.135.0/24'
p482
aS'38.100.139.0/24'
p483
aS'38.100.154.0/24'
p484
aS'38.100.158.0/24'
p485
aS'38.100.161.0/24'
p486
aS'38.100.169.0/24'
p487
aS'38.100.184.0/21'
p488
aS'38.100.198.0/24'
p489
aS'38.100.200.0/22'
p490
aS'38.100.241.0/24'
p491
aS'38.100.252.0/24'
p492
aS'38.101.13.0/24'
p493
aS'38.101.18.0/24'
p494
aS'38.101.19.0/24'
p495
aS'38.101.23.0/24'
p496
aS'38.101.24.0/24'
p497
aS'38.101.25.0/24'
p498
aS'38.101.26.0/23'
p499
aS'38.101.29.0/24'
p500
aS'38.101.30.0/24'
p501
aS'38.101.40.0/23'
p502
aS'38.101.44.0/23'
p503
aS'38.101.65.0/24'
p504
aS'38.101.70.0/23'
p505
aS'38.101.77.0/24'
p506
aS'38.101.91.0/24'
p507
aS'38.101.93.0/24'
p508
aS'38.101.108.0/24'
p509
aS'38.101.116.0/24'
p510
aS'38.101.134.0/24'
p511
aS'38.101.135.0/24'
p512
aS'38.101.138.0/24'
p513
aS'38.101.142.0/23'
p514
aS'38.101.153.0/24'
p515
aS'38.101.166.0/24'
p516
aS'38.101.172.0/24'
p517
aS'38.101.194.0/24'
p518
aS'38.101.198.0/24'
p519
aS'38.101.214.0/24'
p520
aS'38.101.229.0/24'
p521
aS'38.101.230.0/23'
p522
aS'38.101.233.0/24'
p523
aS'38.101.234.0/24'
p524
aS'38.101.236.0/24'
p525
aS'38.101.240.0/24'
p526
aS'38.101.241.0/24'
p527
aS'38.101.248.0/24'
p528
aS'38.101.249.0/24'
p529
aS'38.101.250.0/24'
p530
aS'38.101.251.0/24'
p531
aS'38.101.254.0/24'
p532
aS'38.102.4.0/23'
p533
aS'38.102.36.0/23'
p534
aS'38.102.40.0/22'
p535
aS'38.102.44.0/22'
p536
aS'38.102.49.0/24'
p537
aS'38.102.50.0/24'
p538
aS'38.102.51.0/24'
p539
aS'38.102.53.0/24'
p540
aS'38.102.55.0/24'
p541
aS'38.102.56.0/23'
p542
aS'38.102.58.0/23'
p543
aS'38.102.67.0/24'
p544
aS'38.102.68.0/24'
p545
aS'38.102.69.0/24'
p546
aS'38.102.70.0/23'
p547
aS'38.102.75.0/24'
p548
aS'38.102.76.0/22'
p549
aS'38.102.92.0/24'
p550
aS'38.102.93.0/24'
p551
aS'38.102.96.0/20'
p552
aS'38.102.112.0/21'
p553
aS'38.102.134.0/24'
p554
aS'38.102.140.0/22'
p555
aS'38.102.145.0/24'
p556
aS'38.102.149.0/24'
p557
aS'38.102.156.0/24'
p558
aS'38.102.158.0/24'
p559
aS'38.102.160.0/24'
p560
aS'38.102.161.0/24'
p561
aS'38.102.226.0/24'
p562
aS'38.102.227.0/24'
p563
aS'38.102.229.0/24'
p564
aS'38.102.232.0/23'
p565
aS'38.102.247.0/24'
p566
aS'38.103.14.0/24'
p567
aS'38.103.15.0/24'
p568
aS'38.103.22.0/24'
p569
aS'38.103.23.0/24'
p570
aS'38.103.24.0/24'
p571
aS'38.103.31.0/24'
p572
aS'38.103.32.0/24'
p573
aS'38.103.33.0/24'
p574
aS'38.103.34.0/24'
p575
aS'38.103.40.0/24'
p576
aS'38.103.45.0/24'
p577
aS'38.103.47.0/24'
p578
aS'38.103.51.0/24'
p579
aS'38.103.53.0/24'
p580
aS'38.103.56.0/22'
p581
aS'38.103.60.0/24'
p582
aS'38.103.93.0/24'
p583
aS'38.103.95.0/24'
p584
aS'38.103.97.0/24'
p585
aS'38.103.113.0/24'
p586
aS'38.103.140.0/23'
p587
aS'38.103.144.0/22'
p588
aS'38.103.149.0/24'
p589
aS'38.103.162.0/24'
p590
aS'38.103.172.0/22'
p591
aS'38.103.193.0/24'
p592
aS'38.103.194.0/24'
p593
aS'38.103.196.0/22'
p594
aS'38.103.212.0/24'
p595
aS'38.103.214.0/23'
p596
aS'38.103.226.0/24'
p597
aS'38.103.242.0/23'
p598
aS'38.104.227.0/24'
p599
aS'38.104.239.0/24'
p600
aS'38.105.7.0/24'
p601
aS'38.105.15.0/24'
p602
aS'38.105.36.0/22'
p603
aS'38.105.66.0/24'
p604
aS'38.105.69.0/24'
p605
aS'38.105.70.0/24'
p606
aS'38.105.84.0/24'
p607
aS'38.105.85.0/24'
p608
aS'38.105.89.0/24'
p609
aS'38.105.90.0/24'
p610
aS'38.105.93.0/24'
p611
aS'38.105.94.0/24'
p612
aS'38.105.102.0/24'
p613
aS'38.105.104.0/24'
p614
aS'38.105.107.0/24'
p615
aS'38.105.108.0/24'
p616
aS'38.105.123.0/24'
p617
aS'38.105.137.0/24'
p618
aS'38.105.149.0/24'
p619
aS'38.105.165.0/24'
p620
aS'38.105.176.0/22'
p621
aS'38.105.194.0/24'
p622
aS'38.105.195.0/24'
p623
aS'38.105.212.0/24'
p624
aS'38.105.219.0/24'
p625
aS'38.105.220.0/24'
p626
aS'38.105.232.0/24'
p627
aS'38.105.234.0/24'
p628
aS'38.105.240.0/24'
p629
aS'38.106.2.0/24'
p630
aS'38.106.4.0/23'
p631
aS'38.106.9.0/24'
p632
aS'38.106.10.0/24'
p633
aS'38.106.13.0/24'
p634
aS'38.106.14.0/23'
p635
aS'38.106.16.0/21'
p636
aS'38.106.25.0/24'
p637
aS'38.106.30.0/24'
p638
aS'38.106.31.0/24'
p639
aS'38.106.42.0/23'
p640
aS'38.106.68.0/24'
p641
aS'38.106.72.0/21'
p642
aS'38.106.80.0/24'
p643
aS'38.106.98.0/23'
p644
aS'38.106.100.0/23'
p645
aS'38.106.117.0/24'
p646
aS'38.106.120.0/21'
p647
aS'38.106.128.0/21'
p648
aS'38.106.140.0/24'
p649
aS'38.106.142.0/24'
p650
aS'38.106.144.0/23'
p651
aS'38.106.150.0/24'
p652
aS'38.106.152.0/24'
p653
aS'38.106.155.0/24'
p654
aS'38.106.158.0/23'
p655
aS'38.106.160.0/22'
p656
aS'38.106.166.0/23'
p657
aS'38.106.171.0/24'
p658
aS'38.106.180.0/22'
p659
aS'38.106.184.0/24'
p660
aS'38.106.186.0/23'
p661
aS'38.106.190.0/24'
p662
aS'38.106.246.0/24'
p663
aS'38.107.67.0/24'
p664
aS'38.107.68.0/24'
p665
aS'38.107.69.0/24'
p666
aS'38.107.70.0/24'
p667
aS'38.107.78.0/24'
p668
aS'38.107.81.0/24'
p669
aS'38.107.100.0/24'
p670
aS'38.107.102.0/23'
p671
aS'38.107.104.0/22'
p672
aS'38.107.108.0/24'
p673
aS'38.107.115.0/24'
p674
aS'38.107.136.0/23'
p675
aS'38.107.140.0/24'
p676
aS'38.107.142.0/24'
p677
aS'38.107.143.0/24'
p678
aS'38.107.148.0/24'
p679
aS'38.107.152.0/22'
p680
aS'38.107.168.0/23'
p681
aS'38.107.172.0/23'
p682
aS'38.107.174.0/23'
p683
aS'38.107.176.0/24'
p684
aS'38.107.177.0/24'
p685
aS'38.107.178.0/24'
p686
aS'38.107.184.0/23'
p687
aS'38.107.187.0/24'
p688
aS'38.107.192.0/21'
p689
aS'38.107.203.0/24'
p690
aS'38.107.206.0/24'
p691
aS'38.107.207.0/24'
p692
aS'38.107.214.0/23'
p693
aS'38.107.217.0/24'
p694
aS'38.107.218.0/23'
p695
aS'38.107.221.0/24'
p696
aS'38.107.222.0/24'
p697
aS'38.107.226.0/24'
p698
aS'38.107.232.0/21'
p699
aS'38.107.246.0/23'
p700
aS'38.107.248.0/24'
p701
aS'38.107.249.0/24'
p702
aS'38.107.250.0/24'
p703
aS'38.107.252.0/24'
p704
aS'38.107.254.0/23'
p705
aS'38.108.3.0/24'
p706
aS'38.108.5.0/24'
p707
aS'38.108.6.0/23'
p708
aS'38.108.9.0/24'
p709
aS'38.108.10.0/24'
p710
aS'38.108.16.0/23'
p711
aS'38.108.32.0/21'
p712
aS'38.108.48.0/24'
p713
aS'38.108.51.0/24'
p714
aS'38.108.52.0/23'
p715
aS'38.108.54.0/23'
p716
aS'38.108.56.0/22'
p717
aS'38.108.60.0/22'
p718
aS'38.108.64.0/24'
p719
aS'38.108.66.0/24'
p720
aS'38.108.72.0/24'
p721
aS'38.108.74.0/24'
p722
aS'38.108.78.0/24'
p723
aS'38.108.81.0/24'
p724
aS'38.108.85.0/24'
p725
aS'38.108.87.0/24'
p726
aS'38.108.92.0/24'
p727
aS'38.108.96.0/24'
p728
aS'38.108.114.0/24'
p729
aS'38.108.115.0/24'
p730
aS'38.108.117.0/24'
p731
aS'38.108.128.0/23'
p732
aS'38.108.136.0/21'
p733
aS'38.108.164.0/24'
p734
aS'38.108.180.0/24'
p735
aS'38.108.197.0/24'
p736
aS'38.108.200.0/24'
p737
aS'38.108.208.0/21'
p738
aS'38.108.217.0/24'
p739
aS'38.108.218.0/24'
p740
aS'38.108.224.0/24'
p741
aS'38.108.227.0/24'
p742
aS'38.108.233.0/24'
p743
aS'38.108.236.0/24'
p744
aS'38.108.237.0/24'
p745
aS'38.108.240.0/23'
p746
aS'38.108.244.0/24'
p747
aS'38.108.252.0/24'
p748
aS'38.109.28.0/22'
p749
aS'38.109.46.0/24'
p750
aS'38.109.70.0/24'
p751
aS'38.109.76.0/24'
p752
aS'38.109.82.0/24'
p753
aS'38.109.88.0/21'
p754
aS'38.109.96.0/22'
p755
aS'38.109.102.0/24'
p756
aS'38.109.119.0/24'
p757
aS'38.109.128.0/21'
p758
aS'38.109.135.0/24'
p759
aS'38.109.144.0/22'
p760
aS'38.109.158.0/23'
p761
aS'38.109.177.0/24'
p762
aS'38.109.178.0/23'
p763
aS'38.109.180.0/22'
p764
aS'38.109.190.0/23'
p765
aS'38.109.192.0/23'
p766
aS'38.109.196.0/24'
p767
aS'38.109.210.0/23'
p768
aS'38.109.212.0/24'
p769
aS'38.110.7.0/24'
p770
aS'38.110.16.0/21'
p771
aS'38.110.24.0/24'
p772
aS'38.110.25.0/24'
p773
aS'38.110.30.0/24'
p774
aS'38.110.31.0/24'
p775
aS'38.110.32.0/22'
p776
aS'38.110.37.0/24'
p777
aS'38.110.38.0/23'
p778
aS'38.110.40.0/22'
p779
aS'38.110.44.0/23'
p780
aS'38.110.59.0/24'
p781
aS'38.110.61.0/24'
p782
aS'38.110.65.0/24'
p783
aS'38.110.66.0/24'
p784
aS'38.110.76.0/24'
p785
aS'38.110.77.0/24'
p786
aS'38.110.82.0/24'
p787
aS'38.110.88.0/24'
p788
aS'38.110.89.0/24'
p789
aS'38.110.90.0/24'
p790
aS'38.110.128.0/21'
p791
aS'38.110.136.0/24'
p792
aS'38.110.146.0/24'
p793
aS'38.110.156.0/24'
p794
aS'38.110.157.0/24'
p795
aS'38.110.164.0/22'
p796
aS'38.110.168.0/22'
p797
aS'38.110.172.0/23'
p798
aS'38.110.176.0/21'
p799
aS'38.110.184.0/21'
p800
aS'38.110.200.0/22'
p801
aS'38.110.212.0/24'
p802
aS'38.110.217.0/24'
p803
aS'38.110.224.0/19'
p804
aS'38.111.4.0/24'
p805
aS'38.111.7.0/24'
p806
aS'38.111.11.0/24'
p807
aS'38.111.12.0/24'
p808
aS'38.111.14.0/24'
p809
aS'38.111.21.0/24'
p810
aS'38.111.29.0/24'
p811
aS'38.111.30.0/23'
p812
aS'38.111.34.0/24'
p813
aS'38.111.39.0/24'
p814
aS'38.111.46.0/24'
p815
aS'38.111.52.0/24'
p816
aS'38.111.56.0/24'
p817
aS'38.111.60.0/24'
p818
aS'38.111.104.0/24'
p819
aS'38.111.105.0/24'
p820
aS'38.111.106.0/24'
p821
aS'38.111.107.0/24'
p822
aS'38.111.113.0/24'
p823
aS'38.111.128.0/23'
p824
aS'38.111.142.0/23'
p825
aS'38.111.149.0/24'
p826
aS'38.111.152.0/24'
p827
aS'38.111.158.0/24'
p828
aS'38.111.176.0/22'
p829
aS'38.111.181.0/24'
p830
aS'38.111.184.0/21'
p831
aS'38.111.193.0/24'
p832
aS'38.111.194.0/23'
p833
aS'38.111.197.0/24'
p834
aS'38.111.224.0/24'
p835
aS'38.111.247.0/24'
p836
aS'38.111.248.0/24'
p837
aS'38.111.249.0/24'
p838
aS'38.111.252.0/24'
p839
aS'38.111.253.0/24'
p840
aS'38.112.57.0/24'
p841
aS'38.112.58.0/24'
p842
aS'38.112.98.0/23'
p843
aS'38.112.107.0/24'
p844
aS'38.112.108.0/22'
p845
aS'38.112.112.0/24'
p846
aS'38.112.164.0/24'
p847
aS'38.112.168.0/24'
p848
aS'38.112.185.0/24'
p849
aS'38.113.17.0/24'
p850
aS'38.113.86.0/24'
p851
aS'38.113.88.0/22'
p852
aS'38.113.117.0/24'
p853
aS'38.113.136.0/24'
p854
aS'38.113.144.0/24'
p855
aS'38.113.145.0/24'
p856
aS'38.113.162.0/24'
p857
aS'38.113.165.0/24'
p858
aS'38.113.167.0/24'
p859
aS'38.113.186.0/24'
p860
aS'38.113.187.0/24'
p861
aS'38.114.20.0/24'
p862
aS'38.114.43.0/24'
p863
aS'38.114.57.0/24'
p864
aS'38.114.64.0/21'
p865
aS'38.114.74.0/24'
p866
aS'38.114.76.0/22'
p867
aS'38.114.80.0/24'
p868
aS'38.114.82.0/23'
p869
aS'38.114.88.0/21'
p870
aS'38.114.96.0/24'
p871
aS'38.114.97.0/24'
p872
aS'38.114.99.0/24'
p873
aS'38.114.106.0/24'
p874
aS'38.114.116.0/23'
p875
aS'38.114.120.0/21'
p876
aS'38.114.193.0/24'
p877
aS'38.114.199.0/24'
p878
aS'38.114.200.0/24'
p879
aS'38.114.201.0/24'
p880
aS'38.114.202.0/23'
p881
aS'38.114.204.0/23'
p882
aS'38.114.209.0/24'
p883
aS'38.114.220.0/23'
p884
aS'38.114.223.0/24'
p885
aS'38.115.153.0/24'
p886
aS'38.115.160.0/24'
p887
aS'38.115.161.0/24'
p888
aS'38.115.162.0/24'
p889
aS'38.115.166.0/23'
p890
aS'38.115.169.0/24'
p891
aS'38.115.170.0/23'
p892
aS'38.115.182.0/24'
p893
aS'38.116.5.0/24'
p894
aS'38.116.28.0/22'
p895
aS'38.116.133.0/24'
p896
aS'38.116.136.0/23'
p897
aS'38.116.138.0/24'
p898
aS'38.116.144.0/24'
p899
aS'38.116.145.0/24'
p900
aS'38.116.192.0/24'
p901
aS'38.116.197.0/24'
p902
aS'38.117.64.0/24'
p903
aS'38.117.65.0/24'
p904
aS'38.117.72.0/24'
p905
aS'38.117.80.0/24'
p906
aS'38.117.83.0/24'
p907
aS'38.117.85.0/24'
p908
aS'38.117.87.0/24'
p909
aS'38.117.89.0/24'
p910
aS'38.117.93.0/24'
p911
aS'38.117.96.0/24'
p912
aS'38.117.97.0/24'
p913
aS'38.117.99.0/24'
p914
aS'38.117.102.0/24'
p915
aS'38.117.105.0/24'
p916
aS'38.117.140.0/24'
p917
aS'38.117.155.0/24'
p918
aS'38.117.178.0/24'
p919
aS'38.117.181.0/24'
p920
aS'38.117.216.0/24'
p921
aS'38.117.217.0/24'
p922
aS'38.117.241.0/24'
p923
aS'38.117.244.0/24'
p924
aS'38.118.10.0/24'
p925
aS'38.118.13.0/24'
p926
aS'38.118.23.0/24'
p927
aS'38.118.26.0/24'
p928
aS'38.118.30.0/24'
p929
aS'38.118.33.0/24'
p930
aS'38.118.41.0/24'
p931
aS'38.118.56.0/21'
p932
aS'38.118.70.0/24'
p933
aS'38.118.77.0/24'
p934
aS'38.118.80.0/24'
p935
aS'38.118.84.0/24'
p936
aS'38.118.129.0/24'
p937
aS'38.118.134.0/23'
p938
aS'38.118.136.0/24'
p939
aS'38.118.137.0/24'
p940
aS'38.118.148.0/23'
p941
aS'38.118.158.0/24'
p942
aS'38.118.159.0/24'
p943
aS'38.118.192.0/23'
p944
aS'38.118.208.0/24'
p945
aS'38.118.210.0/24'
p946
aS'38.118.224.0/23'
p947
aS'38.119.56.0/24'
p948
aS'38.119.60.0/22'
p949
aS'38.119.92.0/22'
p950
aS'38.119.115.0/24'
p951
aS'38.119.152.0/23'
p952
aS'38.119.159.0/24'
p953
aS'38.119.164.0/24'
p954
aS'38.119.166.0/23'
p955
aS'38.120.0.0/20'
p956
aS'38.121.0.0/19'
p957
aS'38.121.32.0/23'
p958
aS'38.121.36.0/23'
p959
aS'38.121.40.0/23'
p960
aS'38.121.44.0/22'
p961
aS'38.121.54.0/24'
p962
aS'38.121.55.0/24'
p963
aS'38.121.57.0/24'
p964
aS'38.121.59.0/24'
p965
aS'38.121.65.0/24'
p966
aS'38.121.66.0/23'
p967
aS'38.121.68.0/22'
p968
aS'38.121.80.0/20'
p969
aS'38.121.96.0/23'
p970
aS'38.121.98.0/24'
p971
aS'38.121.100.0/24'
p972
aS'38.121.101.0/24'
p973
aS'38.121.105.0/24'
p974
aS'38.121.112.0/24'
p975
aS'38.121.115.0/24'
p976
aS'38.121.116.0/24'
p977
aS'38.121.120.0/23'
p978
aS'38.121.132.0/24'
p979
aS'38.121.145.0/24'
p980
aS'38.121.158.0/24'
p981
aS'38.121.170.0/24'
p982
aS'38.121.171.0/24'
p983
aS'38.121.177.0/24'
p984
aS'38.121.181.0/24'
p985
aS'38.121.188.0/24'
p986
aS'38.121.189.0/24'
p987
aS'38.121.190.0/24'
p988
aS'38.121.192.0/21'
p989
aS'38.121.225.0/24'
p990
aS'38.121.227.0/24'
p991
aS'38.121.231.0/24'
p992
aS'38.121.235.0/24'
p993
aS'38.121.240.0/20'
p994
aS'38.123.0.0/23'
p995
aS'38.123.4.0/24'
p996
aS'38.123.6.0/24'
p997
aS'38.123.8.0/22'
p998
aS'38.123.14.0/23'
p999
aS'38.123.16.0/22'
p1000
aS'38.123.20.0/24'
p1001
aS'38.123.23.0/24'
p1002
aS'38.123.36.0/24'
p1003
aS'38.123.66.0/23'
p1004
aS'38.123.68.0/24'
p1005
aS'38.123.80.0/22'
p1006
aS'38.123.84.0/22'
p1007
aS'38.123.88.0/24'
p1008
aS'38.123.96.0/20'
p1009
aS'38.123.128.0/24'
p1010
aS'38.123.134.0/24'
p1011
aS'38.123.135.0/24'
p1012
aS'38.123.136.0/24'
p1013
aS'38.123.142.0/24'
p1014
aS'38.123.200.0/24'
p1015
aS'38.123.201.0/24'
p1016
aS'38.124.1.0/24'
p1017
aS'38.124.7.0/24'
p1018
aS'38.124.10.0/23'
p1019
aS'38.124.29.0/24'
p1020
aS'38.124.31.0/24'
p1021
aS'38.124.32.0/22'
p1022
aS'38.124.36.0/23'
p1023
aS'38.124.40.0/23'
p1024
aS'38.124.44.0/24'
p1025
aS'38.124.45.0/24'
p1026
aS'38.124.53.0/24'
p1027
aS'38.124.60.0/23'
p1028
aS'38.124.64.0/22'
p1029
aS'38.124.68.0/22'
p1030
aS'38.124.72.0/22'
p1031
aS'38.124.77.0/24'
p1032
aS'38.124.79.0/24'
p1033
aS'38.124.103.0/24'
p1034
aS'38.124.105.0/24'
p1035
aS'38.124.108.0/23'
p1036
aS'38.124.110.0/23'
p1037
aS'38.124.128.0/21'
p1038
aS'38.124.140.0/22'
p1039
aS'38.124.144.0/23'
p1040
aS'38.124.147.0/24'
p1041
aS'38.124.153.0/24'
p1042
aS'38.124.156.0/24'
p1043
aS'38.124.158.0/24'
p1044
aS'38.124.160.0/22'
p1045
aS'38.124.169.0/24'
p1046
aS'38.124.171.0/24'
p1047
aS'38.124.172.0/24'
p1048
aS'38.124.174.0/24'
p1049
aS'38.124.175.0/24'
p1050
aS'38.124.194.0/24'
p1051
aS'38.124.196.0/22'
p1052
aS'38.124.232.0/22'
p1053
aS'38.124.248.0/24'
p1054
aS'38.125.13.0/24'
p1055
aS'38.125.14.0/24'
p1056
aS'38.125.18.0/24'
p1057
aS'38.125.22.0/24'
p1058
aS'38.125.29.0/24'
p1059
aS'38.125.34.0/24'
p1060
aS'38.125.40.0/24'
p1061
aS'38.125.46.0/24'
p1062
aS'38.125.48.0/20'
p1063
aS'38.125.64.0/20'
p1064
aS'38.125.80.0/24'
p1065
aS'38.125.81.0/24'
p1066
aS'38.125.90.0/24'
p1067
aS'38.125.95.0/24'
p1068
aS'38.125.96.0/20'
p1069
aS'38.125.112.0/24'
p1070
aS'38.125.113.0/24'
p1071
aS'38.125.114.0/24'
p1072
aS'38.125.115.0/24'
p1073
aS'38.125.116.0/24'
p1074
aS'38.125.124.0/24'
p1075
aS'38.125.128.0/24'
p1076
aS'38.125.159.0/24'
p1077
aS'38.125.166.0/23'
p1078
aS'38.125.169.0/24'
p1079
aS'38.125.172.0/23'
p1080
aS'38.125.176.0/24'
p1081
aS'38.125.177.0/24'
p1082
aS'38.125.182.0/24'
p1083
aS'38.125.188.0/23'
p1084
aS'38.126.13.0/24'
p1085
aS'38.126.23.0/24'
p1086
aS'38.126.39.0/24'
p1087
aS'38.126.42.0/24'
p1088
aS'38.126.49.0/24'
p1089
aS'38.126.60.0/24'
p1090
aS'38.126.74.0/24'
p1091
aS'38.126.76.0/22'
p1092
aS'38.126.98.0/24'
p1093
aS'38.126.106.0/23'
p1094
aS'38.126.110.0/23'
p1095
aS'38.126.113.0/24'
p1096
aS'38.126.117.0/24'
p1097
aS'38.126.118.0/24'
p1098
aS'38.126.120.0/22'
p1099
aS'38.126.124.0/23'
p1100
aS'38.126.128.0/24'
p1101
aS'38.126.136.0/24'
p1102
aS'38.126.145.0/24'
p1103
aS'38.126.151.0/24'
p1104
aS'38.126.154.0/24'
p1105
aS'38.126.161.0/24'
p1106
aS'38.126.172.0/23'
p1107
aS'38.126.174.0/24'
p1108
aS'38.126.175.0/24'
p1109
aS'38.126.204.0/24'
p1110
aS'38.126.205.0/24'
p1111
aS'38.126.206.0/23'
p1112
aS'38.126.217.0/24'
p1113
aS'38.126.218.0/23'
p1114
aS'38.126.220.0/23'
p1115
aS'38.126.222.0/23'
p1116
aS'38.126.224.0/22'
p1117
aS'38.126.228.0/23'
p1118
aS'38.126.233.0/24'
p1119
aS'38.127.1.0/24'
p1120
aS'38.127.64.0/24'
p1121
aS'38.127.67.0/24'
p1122
aS'38.127.68.0/23'
p1123
aS'38.127.72.0/23'
p1124
aS'38.127.74.0/23'
p1125
aS'38.127.97.0/24'
p1126
aS'38.127.129.0/24'
p1127
aS'38.127.130.0/23'
p1128
aS'38.127.132.0/24'
p1129
aS'38.127.137.0/24'
p1130
aS'38.127.138.0/24'
p1131
aS'38.127.140.0/24'
p1132
aS'38.127.144.0/23'
p1133
aS'38.127.147.0/24'
p1134
aS'38.127.148.0/22'
p1135
aS'38.127.154.0/23'
p1136
aS'38.127.156.0/24'
p1137
aS'38.127.158.0/24'
p1138
aS'38.127.159.0/24'
p1139
aS'38.127.160.0/24'
p1140
aS'38.127.164.0/24'
p1141
aS'38.127.166.0/24'
p1142
aS'38.127.170.0/23'
p1143
aS'38.127.178.0/24'
p1144
aS'38.127.179.0/24'
p1145
aS'38.127.180.0/24'
p1146
aS'38.127.181.0/24'
p1147
aS'38.127.184.0/21'
p1148
aS'38.127.199.0/24'
p1149
aS'38.127.201.0/24'
p1150
aS'38.127.202.0/24'
p1151
aS'38.127.203.0/24'
p1152
aS'38.127.204.0/24'
p1153
aS'38.127.208.0/24'
p1154
aS'38.127.211.0/24'
p1155
aS'38.127.216.0/24'
p1156
aS'38.127.218.0/23'
p1157
aS'38.127.222.0/23'
p1158
aS'38.128.0.0/23'
p1159
aS'38.128.4.0/22'
p1160
aS'38.128.64.0/24'
p1161
aS'38.136.24.0/24'
p1162
aS'38.136.218.0/24'
p1163
aS'38.138.251.0/24'
p1164
aS'38.139.8.0/24'
p1165
aS'38.139.36.0/24'
p1166
aS'38.139.48.0/24'
p1167
aS'38.139.49.0/24'
p1168
aS'38.139.50.0/24'
p1169
aS'38.139.51.0/24'
p1170
aS'38.139.52.0/24'
p1171
aS'38.139.53.0/24'
p1172
aS'38.139.54.0/24'
p1173
aS'38.148.106.0/24'
p1174
aS'38.150.55.0/24'
p1175
aS'38.150.246.0/24'
p1176
aS'38.151.158.0/24'
p1177
aS'38.151.169.0/24'
p1178
aS'38.153.190.0/24'
p1179
aS'38.155.79.0/24'
p1180
aS'38.155.155.0/24'
p1181
aS'38.157.74.0/24'
p1182
aS'38.157.239.0/24'
p1183
aS'38.158.219.0/24'
p1184
aS'38.160.74.0/24'
p1185
aS'38.161.42.0/24'
p1186
aS'38.162.92.0/24'
p1187
aS'38.162.124.0/24'
p1188
aS'38.163.141.0/24'
p1189
aS'38.164.20.0/23'
p1190
aS'38.164.240.0/24'
p1191
aS'38.165.139.0/24'
p1192
aS'38.166.42.0/24'
p1193
aS'38.167.43.0/24'
p1194
aS'38.167.204.0/24'
p1195
aS'38.184.12.0/24'
p1196
aS'38.185.59.0/24'
p1197
aS'38.186.35.0/24'
p1198
aS'38.200.3.0/24'
p1199
aS'38.200.23.0/24'
p1200
aS'38.200.193.0/24'
p1201
aS'38.201.59.0/24'
p1202
aS'38.208.144.0/22'
p1203
aS'38.210.42.0/24'
p1204
aS'38.211.69.0/24'
p1205
aS'38.216.220.0/24'
p1206
aS'38.218.76.0/23'
p1207
aS'38.219.132.0/24'
p1208
aS'38.219.169.0/24'
p1209
aS'38.221.129.0/24'
p1210
aS'38.221.208.0/24'
p1211
aS'38.223.231.0/24'
p1212
aS'38.223.237.0/24'
p1213
aS'38.226.110.0/24'
p1214
aS'38.227.116.0/24'
p1215
aS'38.228.47.0/24'
p1216
aS'38.228.183.0/24'
p1217
aS'38.230.89.0/24'
p1218
aS'38.232.69.0/24'
p1219
aS'38.232.74.0/24'
p1220
aS'38.234.38.0/24'
p1221
aS'38.234.162.0/24'
p1222
aS'38.241.193.0/24'
p1223
aS'38.242.0.0/24'
p1224
aS'38.242.100.0/24'
p1225
aS'38.243.64.0/24'
p1226
aS'38.244.100.0/24'
p1227
aS'38.244.141.0/24'
p1228
aS'38.245.54.0/24'
p1229
aS'38.247.149.0/24'
p1230
aS'38.247.211.0/24'
p1231
aS'38.248.70.0/23'
p1232
aS'38.250.216.0/24'
p1233
aS'38.251.246.0/24'
p1234
aS'46.17.208.0/21'
p1235
aS'50.7.1.0/24'
p1236
aS'50.7.2.0/24'
p1237
aS'50.7.3.0/24'
p1238
aS'50.7.36.0/24'
p1239
aS'50.7.37.0/24'
p1240
aS'50.7.38.0/24'
p1241
aS'50.7.39.0/24'
p1242
aS'50.7.40.0/24'
p1243
aS'50.7.41.0/24'
p1244
aS'50.7.42.0/24'
p1245
aS'50.7.43.0/24'
p1246
aS'50.7.44.0/24'
p1247
aS'50.7.45.0/24'
p1248
aS'50.7.46.0/24'
p1249
aS'50.7.47.0/24'
p1250
aS'50.7.48.0/24'
p1251
aS'50.7.49.0/24'
p1252
aS'50.7.50.0/24'
p1253
aS'50.7.51.0/24'
p1254
aS'50.7.52.0/24'
p1255
aS'50.7.53.0/24'
p1256
aS'50.7.54.0/24'
p1257
aS'50.7.55.0/24'
p1258
aS'50.7.56.0/24'
p1259
aS'50.7.57.0/24'
p1260
aS'50.7.58.0/24'
p1261
aS'50.7.60.0/24'
p1262
aS'50.7.61.0/24'
p1263
aS'50.7.62.0/24'
p1264
aS'50.7.63.0/24'
p1265
aS'50.7.64.0/22'
p1266
aS'50.7.128.0/22'
p1267
aS'50.7.132.0/22'
p1268
aS'50.7.136.0/22'
p1269
aS'50.7.160.0/22'
p1270
aS'50.7.168.0/22'
p1271
aS'50.7.172.0/22'
p1272
aS'50.7.180.0/22'
p1273
aS'50.7.184.0/24'
p1274
aS'50.7.185.0/24'
p1275
aS'61.28.217.0/24'
p1276
aS'61.28.218.0/24'
p1277
aS'63.75.49.0/24'
p1278
aS'63.117.79.0/24'
p1279
aS'63.247.224.0/19'
p1280
aS'64.4.192.0/19'
p1281
aS'64.4.202.0/24'
p1282
aS'64.4.207.0/24'
p1283
aS'64.16.217.0/24'
p1284
aS'64.17.48.0/20'
p1285
aS'64.187.208.0/24'
p1286
aS'64.189.208.0/20'
p1287
aS'64.202.0.0/19'
p1288
aS'64.254.50.0/23'
p1289
aS'64.254.192.0/19'
p1290
aS'64.254.193.0/24'
p1291
aS'64.254.208.0/24'
p1292
aS'64.254.218.0/24'
p1293
aS'65.219.101.0/24'
p1294
aS'65.255.45.0/24'
p1295
aS'66.28.0.0/16'
p1296
aS'66.28.1.0/24'
p1297
aS'66.28.9.0/24'
p1298
aS'66.28.27.0/24'
p1299
aS'66.28.50.0/24'
p1300
aS'66.28.99.0/24'
p1301
aS'66.28.108.0/24'
p1302
aS'66.28.139.0/24'
p1303
aS'66.28.179.0/24'
p1304
aS'66.28.216.0/24'
p1305
aS'66.28.218.0/24'
p1306
aS'66.28.220.0/23'
p1307
aS'66.28.228.0/24'
p1308
aS'66.28.242.0/23'
p1309
aS'66.28.250.0/23'
p1310
aS'66.28.252.0/23'
p1311
aS'66.71.224.0/20'
p1312
aS'66.71.224.0/24'
p1313
aS'66.71.229.0/24'
p1314
aS'66.71.230.0/23'
p1315
aS'66.71.232.0/22'
p1316
aS'66.90.82.0/24'
p1317
aS'66.90.84.0/24'
p1318
aS'66.90.91.0/24'
p1319
aS'66.90.96.0/24'
p1320
aS'66.90.98.0/24'
p1321
aS'66.90.99.0/24'
p1322
aS'66.90.108.0/24'
p1323
aS'66.90.111.0/24'
p1324
aS'66.90.119.0/24'
p1325
aS'66.90.120.0/24'
p1326
aS'66.90.121.0/24'
p1327
aS'66.90.122.0/24'
p1328
aS'66.90.125.0/24'
p1329
aS'66.97.29.0/24'
p1330
aS'66.102.96.0/19'
p1331
aS'66.102.96.0/24'
p1332
aS'66.102.120.0/23'
p1333
aS'66.102.126.0/24'
p1334
aS'66.102.127.0/24'
p1335
aS'66.132.0.0/17'
p1336
aS'66.206.64.0/20'
p1337
aS'66.213.165.0/24'
p1338
aS'66.213.166.0/24'
p1339
aS'66.232.160.0/19'
p1340
aS'66.250.0.0/16'
p1341
aS'66.250.40.0/23'
p1342
aS'66.250.94.0/24'
p1343
aS'66.250.142.0/23'
p1344
aS'66.250.190.0/23'
p1345
aS'66.250.200.0/22'
p1346
aS'67.21.144.0/22'
p1347
aS'67.21.148.0/22'
p1348
aS'67.43.112.0/20'
p1349
aS'67.159.0.0/24'
p1350
aS'67.159.1.0/24'
p1351
aS'67.159.10.0/24'
p1352
aS'67.159.13.0/24'
p1353
aS'67.159.16.0/24'
p1354
aS'67.159.19.0/24'
p1355
aS'67.159.39.0/24'
p1356
aS'67.159.40.0/24'
p1357
aS'67.159.41.0/24'
p1358
aS'67.159.42.0/24'
p1359
aS'67.159.43.0/24'
p1360
aS'67.159.44.0/24'
p1361
aS'67.159.45.0/24'
p1362
aS'67.159.46.0/24'
p1363
aS'67.159.47.0/24'
p1364
aS'67.159.48.0/24'
p1365
aS'67.159.49.0/24'
p1366
aS'67.159.50.0/24'
p1367
aS'67.159.51.0/24'
p1368
aS'67.159.52.0/24'
p1369
aS'67.159.53.0/24'
p1370
aS'67.159.55.0/24'
p1371
aS'67.159.56.0/24'
p1372
aS'67.159.57.0/24'
p1373
aS'67.159.58.0/24'
p1374
aS'67.205.242.0/23'
p1375
aS'67.205.244.0/22'
p1376
aS'67.205.248.0/22'
p1377
aS'67.205.252.0/23'
p1378
aS'67.205.255.0/24'
p1379
aS'67.220.224.0/19'
p1380
aS'68.180.0.0/22'
p1381
aS'68.237.128.0/21'
p1382
aS'69.1.227.0/24'
p1383
aS'69.1.228.0/24'
p1384
aS'69.1.254.0/24'
p1385
aS'69.1.255.0/24'
p1386
aS'69.5.56.0/24'
p1387
aS'69.5.58.0/24'
p1388
aS'69.41.80.0/20'
p1389
aS'69.166.112.0/22'
p1390
aS'69.166.116.0/23'
p1391
aS'69.169.224.0/20'
p1392
aS'70.35.24.0/21'
p1393
aS'72.13.128.0/20'
p1394
aS'72.13.148.0/23'
p1395
aS'72.13.150.0/24'
p1396
aS'72.34.176.0/20'
p1397
aS'74.63.64.0/24'
p1398
aS'74.63.65.0/24'
p1399
aS'74.63.66.0/24'
p1400
aS'74.63.67.0/24'
p1401
aS'74.63.68.0/24'
p1402
aS'74.63.69.0/24'
p1403
aS'74.63.70.0/24'
p1404
aS'74.63.71.0/24'
p1405
aS'74.63.72.0/24'
p1406
aS'74.63.73.0/24'
p1407
aS'74.63.75.0/24'
p1408
aS'74.63.79.0/24'
p1409
aS'74.63.84.0/24'
p1410
aS'74.63.85.0/24'
p1411
aS'74.63.86.0/24'
p1412
aS'74.63.87.0/24'
p1413
aS'74.63.88.0/24'
p1414
aS'74.63.89.0/24'
p1415
aS'74.63.90.0/24'
p1416
aS'74.63.91.0/24'
p1417
aS'74.63.92.0/24'
p1418
aS'74.63.93.0/24'
p1419
aS'74.63.97.0/24'
p1420
aS'74.63.99.0/24'
p1421
aS'74.63.101.0/24'
p1422
aS'74.63.105.0/24'
p1423
aS'74.63.109.0/24'
p1424
aS'74.63.111.0/24'
p1425
aS'74.63.112.0/24'
p1426
aS'74.63.116.0/24'
p1427
aS'74.63.117.0/24'
p1428
aS'74.63.118.0/24'
p1429
aS'74.63.122.0/24'
p1430
aS'74.63.123.0/24'
p1431
aS'74.112.72.0/23'
p1432
aS'74.118.111.0/24'
p1433
aS'74.118.200.0/21'
p1434
aS'74.119.175.0/24'
p1435
aS'74.126.224.0/20'
p1436
aS'74.220.16.0/20'
p1437
aS'74.221.210.0/24'
p1438
aS'74.221.211.0/24'
p1439
aS'74.221.212.0/24'
p1440
aS'74.221.213.0/24'
p1441
aS'74.221.214.0/24'
p1442
aS'74.221.215.0/24'
p1443
aS'74.221.217.0/24'
p1444
aS'74.221.219.0/24'
p1445
aS'74.221.220.0/24'
p1446
aS'76.73.1.0/24'
p1447
aS'76.73.2.0/24'
p1448
aS'76.73.3.0/24'
p1449
aS'76.73.5.0/24'
p1450
aS'76.73.6.0/24'
p1451
aS'76.73.7.0/24'
p1452
aS'76.73.8.0/24'
p1453
aS'76.73.9.0/24'
p1454
aS'76.73.10.0/24'
p1455
aS'76.73.11.0/24'
p1456
aS'76.73.12.0/24'
p1457
aS'76.73.19.0/24'
p1458
aS'76.73.20.0/24'
p1459
aS'76.73.21.0/24'
p1460
aS'76.73.22.0/24'
p1461
aS'76.73.25.0/24'
p1462
aS'76.73.26.0/24'
p1463
aS'76.73.27.0/24'
p1464
aS'76.73.28.0/24'
p1465
aS'76.73.30.0/24'
p1466
aS'76.73.31.0/24'
p1467
aS'76.73.35.0/24'
p1468
aS'76.73.36.0/24'
p1469
aS'76.73.37.0/24'
p1470
aS'76.73.38.0/24'
p1471
aS'76.73.39.0/24'
p1472
aS'76.73.40.0/24'
p1473
aS'76.73.41.0/24'
p1474
aS'76.73.42.0/24'
p1475
aS'76.73.43.0/24'
p1476
aS'76.73.44.0/24'
p1477
aS'76.73.45.0/24'
p1478
aS'76.73.46.0/24'
p1479
aS'76.73.47.0/24'
p1480
aS'76.73.48.0/24'
p1481
aS'76.73.49.0/24'
p1482
aS'76.73.50.0/24'
p1483
aS'76.73.52.0/24'
p1484
aS'76.73.54.0/24'
p1485
aS'76.73.55.0/24'
p1486
aS'76.73.57.0/24'
p1487
aS'76.73.58.0/24'
p1488
aS'76.73.62.0/24'
p1489
aS'76.73.64.0/24'
p1490
aS'76.73.66.0/24'
p1491
aS'76.73.67.0/24'
p1492
aS'76.73.69.0/24'
p1493
aS'76.73.71.0/24'
p1494
aS'76.73.72.0/24'
p1495
aS'76.73.74.0/24'
p1496
aS'76.73.75.0/24'
p1497
aS'76.73.76.0/24'
p1498
aS'76.73.77.0/24'
p1499
aS'76.73.78.0/24'
p1500
aS'76.73.80.0/24'
p1501
aS'76.73.82.0/24'
p1502
aS'76.73.83.0/24'
p1503
aS'76.73.86.0/24'
p1504
aS'76.73.87.0/24'
p1505
aS'76.73.88.0/24'
p1506
aS'76.73.89.0/24'
p1507
aS'76.73.90.0/24'
p1508
aS'76.73.91.0/24'
p1509
aS'76.73.94.0/24'
p1510
aS'76.73.101.0/24'
p1511
aS'76.73.102.0/24'
p1512
aS'76.73.103.0/24'
p1513
aS'76.73.104.0/24'
p1514
aS'76.73.106.0/24'
p1515
aS'76.73.107.0/24'
p1516
aS'76.73.108.0/24'
p1517
aS'76.73.109.0/24'
p1518
aS'76.73.114.0/24'
p1519
aS'76.73.115.0/24'
p1520
aS'76.73.116.0/24'
p1521
aS'76.73.117.0/24'
p1522
aS'76.73.118.0/24'
p1523
aS'76.73.122.0/24'
p1524
aS'76.73.123.0/24'
p1525
aS'76.77.18.0/24'
p1526
aS'76.77.19.0/24'
p1527
aS'76.77.20.0/24'
p1528
aS'76.77.21.0/24'
p1529
aS'76.77.22.0/24'
p1530
aS'76.77.23.0/24'
p1531
aS'76.77.24.0/24'
p1532
aS'76.77.25.0/24'
p1533
aS'80.91.64.0/19'
p1534
aS'80.91.66.0/24'
p1535
aS'80.91.68.0/24'
p1536
aS'80.91.69.0/24'
p1537
aS'80.91.73.0/24'
p1538
aS'80.91.74.0/24'
p1539
aS'80.91.75.0/24'
p1540
aS'80.91.79.0/24'
p1541
aS'80.91.80.0/24'
p1542
aS'80.91.82.0/23'
p1543
aS'80.91.84.0/23'
p1544
aS'80.91.86.0/24'
p1545
aS'80.91.89.0/24'
p1546
aS'80.91.90.0/23'
p1547
aS'80.91.94.0/24'
p1548
aS'80.244.48.0/20'
p1549
aS'80.245.32.0/19'
p1550
aS'80.245.38.0/24'
p1551
aS'80.245.61.0/24'
p1552
aS'80.245.62.0/23'
p1553
aS'81.2.128.0/18'
p1554
aS'81.2.128.0/24'
p1555
aS'81.2.130.0/24'
p1556
aS'81.2.132.0/22'
p1557
aS'81.2.136.0/22'
p1558
aS'81.2.187.0/24'
p1559
aS'82.129.0.0/17'
p1560
aS'82.129.5.0/24'
p1561
aS'82.129.13.0/24'
p1562
aS'82.129.16.0/23'
p1563
aS'82.129.18.0/24'
p1564
aS'82.129.25.0/24'
p1565
aS'82.129.27.0/24'
p1566
aS'82.129.34.0/24'
p1567
aS'82.129.44.0/24'
p1568
aS'82.129.65.0/24'
p1569
aS'82.129.72.0/22'
p1570
aS'82.129.76.0/22'
p1571
aS'82.138.64.0/18'
p1572
aS'82.138.67.0/24'
p1573
aS'82.138.71.0/24'
p1574
aS'82.138.81.0/24'
p1575
aS'82.138.83.0/24'
p1576
aS'82.138.100.0/22'
p1577
aS'82.138.107.0/24'
p1578
aS'82.138.109.0/24'
p1579
aS'82.138.111.0/24'
p1580
aS'88.151.224.0/24'
p1581
aS'88.151.231.0/24'
p1582
aS'90.159.224.0/21'
p1583
aS'90.159.232.0/22'
p1584
aS'90.159.236.0/22'
p1585
aS'91.189.104.0/21'
p1586
aS'91.195.187.0/24'
p1587
aS'91.197.248.0/22'
p1588
aS'91.198.26.0/24'
p1589
aS'91.200.116.0/22'
p1590
aS'91.212.3.0/24'
p1591
aS'91.216.36.0/24'
p1592
aS'91.223.67.0/24'
p1593
aS'91.223.87.0/24'
p1594
aS'91.223.207.0/24'
p1595
aS'91.227.186.0/24'
p1596
aS'91.229.180.0/24'
p1597
aS'91.234.104.0/22'
p1598
aS'91.234.233.0/24'
p1599
aS'91.234.234.0/23'
p1600
aS'91.234.236.0/22'
p1601
aS'91.243.115.0/24'
p1602
aS'92.121.32.0/19'
p1603
aS'93.158.202.0/24'
p1604
aS'93.159.208.0/22'
p1605
aS'93.159.212.0/23'
p1606
aS'93.159.214.0/24'
p1607
aS'93.159.215.0/24'
p1608
aS'94.102.192.0/21'
p1609
aS'94.102.192.0/24'
p1610
aS'94.125.183.0/24'
p1611
aS'94.126.192.0/21'
p1612
aS'94.126.196.0/23'
p1613
aS'94.126.198.0/23'
p1614
aS'95.129.248.0/21'
p1615
aS'96.47.192.0/20'
p1616
aS'100.43.16.0/21'
p1617
aS'103.250.205.0/24'
p1618
aS'108.59.34.0/24'
p1619
aS'108.169.228.0/22'
p1620
aS'108.169.248.0/22'
p1621
aS'128.145.0.0/16'
p1622
aS'128.241.24.0/21'
p1623
aS'128.245.0.0/16'
p1624
aS'130.117.0.0/16'
p1625
aS'130.117.10.0/23'
p1626
aS'130.117.42.0/24'
p1627
aS'130.117.45.0/24'
p1628
aS'130.117.46.0/23'
p1629
aS'130.117.53.0/24'
p1630
aS'130.117.54.0/24'
p1631
aS'130.117.57.0/24'
p1632
aS'130.117.60.0/23'
p1633
aS'130.117.83.0/24'
p1634
aS'130.117.90.0/24'
p1635
aS'130.117.119.0/24'
p1636
aS'130.117.122.0/24'
p1637
aS'130.117.125.0/24'
p1638
aS'130.117.140.0/23'
p1639
aS'130.117.169.0/24'
p1640
aS'130.117.185.0/24'
p1641
aS'130.117.193.0/24'
p1642
aS'130.117.194.0/24'
p1643
aS'130.117.225.0/24'
p1644
aS'130.117.234.0/24'
p1645
aS'130.117.236.0/24'
p1646
aS'130.117.237.0/24'
p1647
aS'130.117.246.0/23'
p1648
aS'130.117.250.0/24'
p1649
aS'130.117.252.0/24'
p1650
aS'130.117.253.0/24'
p1651
aS'131.125.0.0/16'
p1652
aS'136.161.0.0/16'
p1653
aS'136.161.100.0/24'
p1654
aS'136.204.0.0/16'
p1655
aS'140.174.179.0/24'
p1656
aS'141.11.254.0/24'
p1657
aS'142.131.210.0/23'
p1658
aS'142.155.0.0/16'
p1659
aS'143.240.0.0/16'
p1660
aS'144.211.88.0/24'
p1661
aS'144.211.99.0/24'
p1662
aS'147.79.192.0/20'
p1663
aS'148.254.0.0/16'
p1664
aS'149.2.0.0/16'
p1665
aS'149.5.0.0/16'
p1666
aS'149.5.1.0/24'
p1667
aS'149.5.2.0/24'
p1668
aS'149.5.20.0/24'
p1669
aS'149.5.22.0/24'
p1670
aS'149.5.32.0/24'
p1671
aS'149.5.34.0/24'
p1672
aS'149.5.35.0/24'
p1673
aS'149.5.36.0/22'
p1674
aS'149.5.40.0/22'
p1675
aS'149.5.44.0/24'
p1676
aS'149.5.45.0/24'
p1677
aS'149.5.47.0/24'
p1678
aS'149.5.67.0/24'
p1679
aS'149.5.71.0/24'
p1680
aS'149.5.72.0/23'
p1681
aS'149.5.79.0/24'
p1682
aS'149.5.82.0/23'
p1683
aS'149.5.98.0/23'
p1684
aS'149.5.100.0/23'
p1685
aS'149.5.103.0/24'
p1686
aS'149.5.108.0/23'
p1687
aS'149.5.111.0/24'
p1688
aS'149.5.113.0/24'
p1689
aS'149.5.114.0/23'
p1690
aS'149.5.116.0/24'
p1691
aS'149.5.117.0/24'
p1692
aS'149.5.144.0/24'
p1693
aS'149.5.169.0/24'
p1694
aS'149.5.241.0/24'
p1695
aS'149.6.0.0/15'
p1696
aS'149.6.16.0/24'
p1697
aS'149.6.127.0/24'
p1698
aS'149.7.1.0/24'
p1699
aS'149.7.16.0/23'
p1700
aS'149.7.34.0/24'
p1701
aS'149.7.35.0/24'
p1702
aS'149.7.38.0/23'
p1703
aS'149.7.55.0/24'
p1704
aS'149.7.60.0/23'
p1705
aS'149.7.97.0/24'
p1706
aS'149.7.99.0/24'
p1707
aS'149.7.114.0/23'
p1708
aS'149.7.209.0/24'
p1709
aS'149.7.210.0/23'
p1710
aS'149.7.212.0/24'
p1711
aS'149.7.217.0/24'
p1712
aS'149.11.0.0/16'
p1713
aS'149.12.0.0/15'
p1714
aS'149.12.67.0/24'
p1715
aS'149.12.68.0/23'
p1716
aS'149.12.70.0/24'
p1717
aS'149.12.96.0/24'
p1718
aS'149.12.98.0/24'
p1719
aS'149.12.177.0/24'
p1720
aS'149.12.179.0/24'
p1721
aS'149.12.216.0/22'
p1722
aS'149.13.0.0/24'
p1723
aS'149.13.16.0/24'
p1724
aS'149.13.18.0/23'
p1725
aS'149.13.20.0/22'
p1726
aS'149.13.28.0/24'
p1727
aS'149.13.30.0/23'
p1728
aS'149.13.32.0/24'
p1729
aS'149.13.64.0/24'
p1730
aS'149.13.70.0/24'
p1731
aS'149.13.71.0/24'
p1732
aS'149.13.72.0/24'
p1733
aS'149.13.73.0/24'
p1734
aS'149.13.80.0/22'
p1735
aS'149.13.114.0/24'
p1736
aS'149.13.120.0/21'
p1737
aS'149.13.145.0/24'
p1738
aS'149.13.241.0/24'
p1739
aS'149.13.242.0/23'
p1740
aS'149.13.244.0/22'
p1741
aS'149.14.0.0/16'
p1742
aS'149.16.0.0/16'
p1743
aS'149.18.0.0/16'
p1744
aS'149.22.0.0/16'
p1745
aS'149.24.174.0/23'
p1746
aS'149.24.176.0/23'
p1747
aS'149.24.180.0/24'
p1748
aS'149.29.0.0/16'
p1749
aS'149.30.0.0/16'
p1750
aS'149.33.0.0/16'
p1751
aS'149.34.0.0/15'
p1752
aS'149.36.0.0/16'
p1753
aS'149.38.0.0/16'
p1754
aS'149.40.0.0/16'
p1755
aS'149.46.0.0/16'
p1756
aS'149.50.0.0/15'
p1757
aS'149.52.0.0/15'
p1758
aS'149.57.0.0/16'
p1759
aS'149.66.0.0/15'
p1760
aS'149.67.0.0/16'
p1761
aS'149.71.0.0/16'
p1762
aS'149.71.56.0/23'
p1763
aS'149.78.0.0/16'
p1764
aS'149.85.0.0/16'
p1765
aS'149.86.0.0/15'
p1766
aS'149.88.0.0/16'
p1767
aS'149.91.0.0/16'
p1768
aS'149.91.6.0/23'
p1769
aS'149.92.0.0/14'
p1770
aS'149.100.0.0/16'
p1771
aS'149.100.0.0/24'
p1772
aS'149.100.2.0/23'
p1773
aS'149.100.4.0/22'
p1774
aS'149.100.8.0/24'
p1775
aS'149.100.64.0/24'
p1776
aS'149.100.160.0/22'
p1777
aS'149.102.0.0/16'
p1778
aS'149.104.0.0/16'
p1779
aS'149.108.0.0/16'
p1780
aS'149.110.0.0/16'
p1781
aS'149.113.0.0/16'
p1782
aS'149.120.0.0/16'
p1783
aS'149.127.0.0/16'
p1784
aS'149.127.2.0/24'
p1785
aS'149.127.8.0/24'
p1786
aS'149.127.10.0/24'
p1787
aS'149.127.13.0/24'
p1788
aS'149.127.15.0/24'
p1789
aS'149.127.50.0/24'
p1790
aS'149.127.109.0/24'
p1791
aS'151.153.0.0/16'
p1792
aS'151.173.3.0/24'
p1793
aS'151.173.4.0/24'
p1794
aS'151.173.8.0/24'
p1795
aS'151.173.12.0/24'
p1796
aS'154.3.0.0/16'
p1797
aS'154.6.0.0/15'
p1798
aS'154.6.101.0/24'
p1799
aS'154.6.115.0/24'
p1800
aS'154.6.122.0/24'
p1801
aS'154.9.0.0/16'
p1802
aS'154.12.0.0/15'
p1803
aS'154.18.0.0/15'
p1804
aS'154.24.0.0/13'
p1805
aS'154.36.0.0/14'
p1806
aS'154.36.0.0/16'
p1807
aS'154.37.0.0/16'
p1808
aS'154.37.180.0/24'
p1809
aS'154.40.0.0/13'
p1810
aS'154.41.66.0/23'
p1811
aS'154.42.193.0/24'
p1812
aS'154.43.1.0/24'
p1813
aS'154.43.2.0/24'
p1814
aS'154.43.4.0/22'
p1815
aS'154.43.164.0/22'
p1816
aS'154.44.64.0/23'
p1817
aS'154.44.66.0/23'
p1818
aS'154.44.136.0/24'
p1819
aS'154.44.138.0/24'
p1820
aS'154.44.139.0/24'
p1821
aS'154.44.140.0/22'
p1822
aS'154.44.176.0/23'
p1823
aS'154.44.178.0/23'
p1824
aS'154.44.186.0/23'
p1825
aS'154.44.190.0/24'
p1826
aS'154.44.191.0/24'
p1827
aS'154.44.192.0/24'
p1828
aS'154.45.2.0/23'
p1829
aS'154.45.41.0/24'
p1830
aS'154.45.42.0/24'
p1831
aS'154.45.205.0/24'
p1832
aS'154.45.212.0/23'
p1833
aS'154.46.33.0/24'
p1834
aS'154.46.34.0/24'
p1835
aS'154.46.35.0/24'
p1836
aS'154.46.36.0/24'
p1837
aS'154.46.168.0/24'
p1838
aS'154.47.0.0/24'
p1839
aS'154.47.1.0/24'
p1840
aS'154.47.66.0/24'
p1841
aS'154.47.68.0/24'
p1842
aS'154.47.72.0/22'
p1843
aS'154.47.128.0/24'
p1844
aS'154.47.160.0/24'
p1845
aS'154.48.0.0/12'
p1846
aS'154.48.128.0/24'
p1847
aS'154.48.130.0/23'
p1848
aS'154.48.132.0/22'
p1849
aS'154.48.136.0/21'
p1850
aS'154.48.144.0/22'
p1851
aS'154.48.148.0/24'
p1852
aS'154.48.149.0/24'
p1853
aS'154.48.150.0/23'
p1854
aS'154.48.152.0/24'
p1855
aS'154.48.156.0/22'
p1856
aS'154.48.195.0/24'
p1857
aS'154.48.197.0/24'
p1858
aS'154.49.194.0/24'
p1859
aS'154.49.196.0/22'
p1860
aS'154.49.224.0/19'
p1861
aS'154.49.224.0/20'
p1862
aS'154.49.240.0/20'
p1863
aS'154.50.1.0/24'
p1864
aS'154.50.136.0/22'
p1865
aS'154.50.194.0/23'
p1866
aS'154.50.196.0/24'
p1867
aS'154.50.207.0/24'
p1868
aS'154.50.210.0/23'
p1869
aS'154.51.66.0/23'
p1870
aS'154.51.131.0/24'
p1871
aS'154.51.140.0/22'
p1872
aS'154.52.0.0/23'
p1873
aS'154.52.32.0/24'
p1874
aS'154.53.1.0/24'
p1875
aS'154.53.128.0/24'
p1876
aS'154.56.88.0/24'
p1877
aS'154.56.96.0/22'
p1878
aS'154.56.128.0/22'
p1879
aS'154.56.144.0/22'
p1880
aS'154.56.152.0/21'
p1881
aS'154.56.192.0/24'
p1882
aS'154.56.196.0/22'
p1883
aS'154.57.2.0/24'
p1884
aS'154.57.144.0/24'
p1885
aS'154.58.0.0/21'
p1886
aS'154.58.192.0/22'
p1887
aS'154.58.196.0/22'
p1888
aS'154.64.0.0/16'
p1889
aS'154.64.192.0/21'
p1890
aS'154.64.200.0/21'
p1891
aS'154.65.32.0/21'
p1892
aS'157.145.212.0/24'
p1893
aS'157.234.208.0/24'
p1894
aS'157.234.210.0/23'
p1895
aS'157.234.212.0/24'
p1896
aS'157.234.215.0/24'
p1897
aS'157.234.222.0/23'
p1898
aS'157.234.231.0/24'
p1899
aS'157.238.154.0/24'
p1900
aS'157.238.160.0/21'
p1901
aS'157.238.178.0/24'
p1902
aS'159.246.20.0/23'
p1903
aS'159.246.22.0/24'
p1904
aS'161.82.16.0/22'
p1905
aS'161.82.20.0/22'
p1906
aS'161.82.24.0/22'
p1907
aS'161.82.28.0/22'
p1908
aS'161.82.32.0/22'
p1909
aS'161.82.36.0/22'
p1910
aS'161.82.44.0/23'
p1911
aS'161.82.46.0/23'
p1912
aS'161.82.48.0/24'
p1913
aS'161.82.52.0/22'
p1914
aS'161.82.56.0/22'
p1915
aS'161.82.60.0/22'
p1916
aS'161.82.64.0/22'
p1917
aS'161.82.68.0/22'
p1918
aS'161.82.72.0/22'
p1919
aS'162.33.32.0/21'
p1920
aS'162.216.23.0/24'
p1921
aS'162.242.118.0/24'
p1922
aS'162.244.8.0/21'
p1923
aS'162.252.43.0/24'
p1924
aS'164.68.0.0/18'
p1925
aS'164.68.64.0/19'
p1926
aS'165.254.160.0/23'
p1927
aS'165.254.170.0/24'
p1928
aS'165.254.173.0/24'
p1929
aS'165.254.176.0/24'
p1930
aS'165.254.252.0/23'
p1931
aS'165.254.254.0/24'
p1932
aS'166.108.248.0/24'
p1933
aS'166.108.253.0/24'
p1934
aS'167.141.0.0/16'
p1935
aS'168.88.120.0/24'
p1936
aS'168.143.226.0/24'
p1937
aS'168.143.236.0/24'
p1938
aS'168.238.254.0/24'
p1939
aS'173.0.6.0/23'
p1940
aS'173.246.160.0/19'
p1941
aS'174.141.128.0/20'
p1942
aS'174.141.144.0/21'
p1943
aS'177.124.128.0/24'
p1944
aS'177.124.129.0/24'
p1945
aS'177.124.131.0/24'
p1946
aS'178.239.208.0/20'
p1947
aS'179.43.16.0/20'
p1948
aS'185.8.140.0/24'
p1949
aS'185.16.220.0/22'
p1950
aS'185.20.128.0/22'
p1951
aS'185.23.52.0/22'
p1952
aS'185.33.132.0/22'
p1953
aS'185.33.192.0/22'
p1954
aS'185.37.156.0/24'
p1955
aS'185.37.157.0/24'
p1956
aS'185.49.192.0/22'
p1957
aS'188.64.32.0/21'
p1958
aS'190.105.156.0/24'
p1959
aS'190.105.157.0/24'
p1960
aS'192.1.48.0/21'
p1961
aS'192.1.247.0/24'
p1962
aS'192.70.249.0/24'
p1963
aS'192.77.171.0/24'
p1964
aS'192.77.224.0/21'
p1965
aS'192.124.118.0/24'
p1966
aS'192.133.83.0/24'
p1967
aS'192.133.120.0/24'
p1968
aS'192.135.186.0/24'
p1969
aS'192.139.118.0/24'
p1970
aS'192.139.232.0/24'
p1971
aS'192.139.237.0/24'
p1972
aS'192.156.98.0/24'
p1973
aS'192.156.241.0/24'
p1974
aS'192.157.96.0/19'
p1975
aS'192.159.32.0/23'
p1976
aS'192.159.160.0/24'
p1977
aS'192.188.131.0/24'
p1978
aS'192.197.60.0/24'
p1979
aS'192.197.250.0/23'
p1980
aS'192.199.2.0/24'
p1981
aS'192.199.4.0/24'
p1982
aS'192.204.2.0/24'
p1983
aS'192.204.178.0/23'
p1984
aS'192.204.180.0/23'
p1985
aS'192.204.182.0/24'
p1986
aS'192.206.32.0/23'
p1987
aS'192.216.144.0/21'
p1988
aS'192.217.48.0/21'
p1989
aS'192.217.56.0/24'
p1990
aS'192.217.84.0/24'
p1991
aS'192.220.128.0/20'
p1992
aS'192.223.8.0/24'
p1993
aS'192.225.96.0/20'
p1994
aS'192.232.162.0/23'
p1995
aS'192.236.72.0/22'
p1996
aS'192.240.98.0/23'
p1997
aS'192.243.24.0/24'
p1998
aS'192.243.25.0/24'
p1999
aS'192.243.26.0/24'
p2000
aS'192.243.27.0/24'
p2001
aS'192.243.28.0/24'
p2002
aS'192.243.29.0/24'
p2003
aS'192.243.30.0/24'
p2004
aS'192.245.88.0/24'
p2005
aS'192.246.0.0/16'
p2006
aS'192.246.40.0/24'
p2007
aS'193.25.172.0/24'
p2008
aS'193.29.239.0/24'
p2009
aS'193.34.32.0/22'
p2010
aS'193.53.16.0/24'
p2011
aS'193.53.17.0/24'
p2012
aS'193.53.18.0/24'
p2013
aS'193.53.19.0/24'
p2014
aS'193.53.20.0/24'
p2015
aS'193.53.21.0/24'
p2016
aS'193.57.249.0/24'
p2017
aS'193.93.200.0/22'
p2018
aS'193.96.108.0/23'
p2019
aS'193.105.197.0/24'
p2020
aS'193.107.240.0/22'
p2021
aS'193.108.179.0/24'
p2022
aS'193.148.7.0/24'
p2023
aS'193.200.214.0/24'
p2024
aS'194.0.146.0/24'
p2025
aS'194.36.22.0/24'
p2026
aS'194.107.126.0/24'
p2027
aS'195.62.74.0/23'
p2028
aS'195.170.176.0/24'
p2029
aS'195.189.178.0/24'
p2030
aS'195.191.244.0/23'
p2031
aS'195.210.48.0/23'
p2032
aS'198.8.57.0/24'
p2033
aS'198.63.7.0/24'
p2034
aS'198.63.31.0/24'
p2035
aS'198.63.183.0/24'
p2036
aS'198.63.192.0/24'
p2037
aS'198.63.199.0/24'
p2038
aS'198.63.200.0/23'
p2039
aS'198.64.170.0/23'
p2040
aS'198.65.204.0/24'
p2041
aS'198.73.190.0/24'
p2042
aS'198.77.86.0/23'
p2043
aS'198.87.15.0/24'
p2044
aS'198.87.16.0/24'
p2045
aS'198.87.49.0/24'
p2046
aS'198.92.208.0/22'
p2047
aS'198.96.1.0/24'
p2048
aS'198.100.0.0/22'
p2049
aS'198.104.198.0/24'
p2050
aS'198.107.160.0/21'
p2051
aS'198.136.234.0/24'
p2052
aS'198.138.48.0/24'
p2053
aS'198.138.230.0/24'
p2054
aS'198.139.227.0/24'
p2055
aS'198.153.16.0/22'
p2056
aS'198.153.20.0/22'
p2057
aS'198.153.24.0/24'
p2058
aS'198.153.25.0/24'
p2059
aS'198.153.26.0/24'
p2060
aS'198.154.7.0/24'
p2061
aS'198.170.218.0/24'
p2062
aS'198.172.138.0/24'
p2063
aS'198.172.227.0/24'
p2064
aS'198.172.230.0/24'
p2065
aS'198.173.13.0/24'
p2066
aS'198.173.14.0/24'
p2067
aS'198.173.25.0/24'
p2068
aS'198.173.213.0/24'
p2069
aS'198.178.139.0/24'
p2070
aS'198.178.140.0/24'
p2071
aS'198.185.178.0/23'
p2072
aS'198.185.180.0/23'
p2073
aS'198.186.242.0/24'
p2074
aS'198.186.246.0/23'
p2075
aS'198.186.248.0/22'
p2076
aS'198.186.252.0/24'
p2077
aS'198.217.31.0/24'
p2078
aS'198.242.0.0/16'
p2079
aS'198.252.172.0/23'
p2080
aS'198.252.227.0/24'
p2081
aS'198.252.228.0/24'
p2082
aS'199.4.110.0/24'
p2083
aS'199.20.54.0/24'
p2084
aS'199.29.0.0/16'
p2085
aS'199.29.65.0/24'
p2086
aS'199.29.180.0/24'
p2087
aS'199.33.161.0/24'
p2088
aS'199.38.96.0/21'
p2089
aS'199.58.12.0/24'
p2090
aS'199.68.72.0/24'
p2091
aS'199.74.211.0/24'
p2092
aS'199.85.252.0/23'
p2093
aS'199.91.240.0/21'
p2094
aS'199.97.0.0/16'
p2095
aS'199.97.228.0/24'
p2096
aS'199.98.0.0/15'
p2097
aS'199.98.0.0/18'
p2098
aS'199.98.226.0/23'
p2099
aS'199.99.96.0/24'
p2100
aS'199.99.128.0/18'
p2101
aS'199.100.0.0/16'
p2102
aS'199.103.146.0/24'
p2103
aS'199.103.168.0/24'
p2104
aS'199.111.96.0/22'
p2105
aS'199.164.26.0/24'
p2106
aS'199.167.225.0/24'
p2107
aS'199.189.132.0/24'
p2108
aS'199.195.168.0/21'
p2109
aS'199.196.169.0/24'
p2110
aS'199.196.170.0/24'
p2111
aS'199.196.189.0/24'
p2112
aS'199.196.190.0/24'
p2113
aS'199.204.140.0/22'
p2114
aS'199.206.0.0/21'
p2115
aS'199.206.8.0/23'
p2116
aS'199.212.15.0/24'
p2117
aS'199.212.84.0/23'
p2118
aS'199.212.250.0/23'
p2119
aS'199.212.252.0/23'
p2120
aS'199.212.254.0/24'
p2121
aS'199.217.139.0/24'
p2122
aS'199.217.140.0/24'
p2123
aS'199.217.153.0/24'
p2124
aS'199.230.16.0/24'
p2125
aS'199.234.244.0/22'
p2126
aS'199.239.101.0/24'
p2127
aS'199.242.204.0/24'
p2128
aS'199.246.101.0/24'
p2129
aS'199.246.153.0/24'
p2130
aS'199.246.154.0/24'
p2131
aS'199.248.30.0/24'
p2132
aS'199.253.164.0/24'
p2133
aS'200.50.231.0/24'
p2134
aS'201.218.171.0/24'
p2135
aS'201.218.172.0/24'
p2136
aS'201.218.173.0/24'
p2137
aS'204.0.6.0/24'
p2138
aS'204.0.65.0/24'
p2139
aS'204.0.75.0/24'
p2140
aS'204.0.136.0/21'
p2141
aS'204.1.171.0/24'
p2142
aS'204.4.0.0/14'
p2143
aS'204.4.23.0/24'
p2144
aS'204.4.76.0/24'
p2145
aS'204.4.77.0/24'
p2146
aS'204.5.3.0/24'
p2147
aS'204.6.0.0/18'
p2148
aS'204.7.0.0/16'
p2149
aS'204.10.120.0/22'
p2150
aS'204.29.160.0/24'
p2151
aS'204.45.0.0/24'
p2152
aS'204.45.1.0/24'
p2153
aS'204.45.2.0/24'
p2154
aS'204.45.11.0/24'
p2155
aS'204.45.12.0/24'
p2156
aS'204.45.16.0/24'
p2157
aS'204.45.18.0/24'
p2158
aS'204.45.21.0/24'
p2159
aS'204.45.22.0/24'
p2160
aS'204.45.28.0/24'
p2161
aS'204.45.33.0/24'
p2162
aS'204.45.39.0/24'
p2163
aS'204.45.41.0/24'
p2164
aS'204.45.42.0/24'
p2165
aS'204.45.46.0/24'
p2166
aS'204.45.48.0/24'
p2167
aS'204.45.49.0/24'
p2168
aS'204.45.50.0/24'
p2169
aS'204.45.52.0/24'
p2170
aS'204.45.55.0/24'
p2171
aS'204.45.56.0/24'
p2172
aS'204.45.57.0/24'
p2173
aS'204.45.58.0/24'
p2174
aS'204.45.59.0/24'
p2175
aS'204.45.60.0/24'
p2176
aS'204.45.61.0/24'
p2177
aS'204.45.63.0/24'
p2178
aS'204.45.103.0/24'
p2179
aS'204.45.105.0/24'
p2180
aS'204.45.139.0/24'
p2181
aS'204.45.207.0/24'
p2182
aS'204.45.208.0/24'
p2183
aS'204.45.211.0/24'
p2184
aS'204.45.213.0/24'
p2185
aS'204.45.216.0/24'
p2186
aS'204.45.220.0/24'
p2187
aS'204.45.227.0/24'
p2188
aS'204.45.238.0/24'
p2189
aS'204.45.244.0/24'
p2190
aS'204.45.246.0/24'
p2191
aS'204.45.248.0/24'
p2192
aS'204.45.253.0/24'
p2193
aS'204.45.254.0/24'
p2194
aS'204.56.96.0/24'
p2195
aS'204.56.98.0/24'
p2196
aS'204.56.112.0/21'
p2197
aS'204.56.122.0/23'
p2198
aS'204.56.124.0/22'
p2199
aS'204.58.148.0/22'
p2200
aS'204.62.143.0/24'
p2201
aS'204.62.206.0/24'
p2202
aS'204.77.18.0/24'
p2203
aS'204.87.32.0/23'
p2204
aS'204.87.34.0/24'
p2205
aS'204.87.41.0/24'
p2206
aS'204.87.62.0/24'
p2207
aS'204.87.151.0/24'
p2208
aS'204.107.133.0/24'
p2209
aS'204.124.100.0/22'
p2210
aS'204.137.128.0/18'
p2211
aS'204.137.192.0/19'
p2212
aS'204.137.196.0/24'
p2213
aS'204.137.208.0/24'
p2214
aS'204.137.209.0/24'
p2215
aS'204.137.210.0/24'
p2216
aS'204.137.211.0/24'
p2217
aS'204.137.212.0/24'
p2218
aS'204.137.213.0/24'
p2219
aS'204.137.214.0/24'
p2220
aS'204.137.215.0/24'
p2221
aS'204.137.216.0/24'
p2222
aS'204.137.240.0/21'
p2223
aS'204.138.124.0/24'
p2224
aS'204.138.125.0/24'
p2225
aS'204.138.127.0/24'
p2226
aS'204.141.205.0/24'
p2227
aS'204.142.130.0/23'
p2228
aS'204.142.180.0/23'
p2229
aS'204.152.156.0/24'
p2230
aS'204.157.0.0/16'
p2231
aS'204.157.3.0/24'
p2232
aS'204.157.252.0/24'
p2233
aS'204.170.16.0/24'
p2234
aS'204.170.20.0/23'
p2235
aS'204.170.221.0/24'
p2236
aS'204.170.245.0/24'
p2237
aS'204.171.48.0/22'
p2238
aS'204.187.66.0/24'
p2239
aS'204.194.96.0/21'
p2240
aS'204.197.176.0/22'
p2241
aS'204.197.180.0/23'
p2242
aS'204.201.33.0/24'
p2243
aS'204.201.63.0/24'
p2244
aS'204.202.204.0/24'
p2245
aS'204.217.0.0/16'
p2246
aS'204.227.224.0/23'
p2247
aS'204.233.235.0/24'
p2248
aS'204.240.0.0/14'
p2249
aS'204.243.172.0/22'
p2250
aS'204.243.176.0/21'
p2251
aS'204.243.181.0/24'
p2252
aS'204.243.184.0/24'
p2253
aS'204.245.188.0/24'
p2254
aS'204.247.25.0/24'
p2255
aS'204.247.138.0/23'
p2256
aS'205.137.48.0/20'
p2257
aS'205.137.49.0/24'
p2258
aS'205.146.40.0/24'
p2259
aS'205.146.68.0/24'
p2260
aS'205.146.120.0/24'
p2261
aS'205.146.140.0/22'
p2262
aS'205.164.64.0/18'
p2263
aS'205.164.128.0/17'
p2264
aS'205.166.42.0/24'
p2265
aS'205.172.24.0/22'
p2266
aS'205.198.0.0/15'
p2267
aS'205.207.69.0/24'
p2268
aS'205.207.71.0/24'
p2269
aS'205.210.230.0/23'
p2270
aS'205.211.54.0/23'
p2271
aS'205.211.56.0/22'
p2272
aS'205.211.76.0/24'
p2273
aS'205.215.0.0/18'
p2274
aS'205.215.45.0/24'
p2275
aS'205.238.23.0/24'
p2276
aS'205.244.101.0/24'
p2277
aS'205.254.160.0/19'
p2278
aS'206.0.0.0/15'
p2279
aS'206.1.2.0/24'
p2280
aS'206.2.0.0/16'
p2281
aS'206.2.76.0/24'
p2282
aS'206.3.32.0/19'
p2283
aS'206.3.40.0/24'
p2284
aS'206.3.64.0/18'
p2285
aS'206.3.128.0/17'
p2286
aS'206.3.139.0/24'
p2287
aS'206.3.160.0/19'
p2288
aS'206.3.160.0/24'
p2289
aS'206.3.161.0/24'
p2290
aS'206.3.162.0/24'
p2291
aS'206.3.163.0/24'
p2292
aS'206.3.164.0/24'
p2293
aS'206.3.165.0/24'
p2294
aS'206.3.166.0/24'
p2295
aS'206.3.167.0/24'
p2296
aS'206.3.168.0/24'
p2297
aS'206.3.169.0/24'
p2298
aS'206.3.170.0/24'
p2299
aS'206.3.171.0/24'
p2300
aS'206.3.172.0/24'
p2301
aS'206.3.173.0/24'
p2302
aS'206.3.174.0/24'
p2303
aS'206.3.175.0/24'
p2304
aS'206.3.176.0/21'
p2305
aS'206.3.176.0/24'
p2306
aS'206.3.177.0/24'
p2307
aS'206.3.178.0/24'
p2308
aS'206.3.179.0/24'
p2309
aS'206.3.180.0/24'
p2310
aS'206.3.181.0/24'
p2311
aS'206.3.182.0/24'
p2312
aS'206.3.183.0/24'
p2313
aS'206.3.184.0/22'
p2314
aS'206.3.184.0/24'
p2315
aS'206.3.185.0/24'
p2316
aS'206.3.186.0/24'
p2317
aS'206.3.187.0/24'
p2318
aS'206.3.188.0/22'
p2319
aS'206.3.188.0/24'
p2320
aS'206.3.189.0/24'
p2321
aS'206.3.190.0/24'
p2322
aS'206.3.191.0/24'
p2323
aS'206.3.224.0/20'
p2324
aS'206.3.224.0/24'
p2325
aS'206.3.225.0/24'
p2326
aS'206.3.226.0/24'
p2327
aS'206.3.227.0/24'
p2328
aS'206.3.228.0/24'
p2329
aS'206.3.229.0/24'
p2330
aS'206.3.230.0/24'
p2331
aS'206.3.231.0/24'
p2332
aS'206.3.232.0/24'
p2333
aS'206.3.233.0/24'
p2334
aS'206.3.234.0/24'
p2335
aS'206.3.235.0/24'
p2336
aS'206.3.236.0/24'
p2337
aS'206.3.237.0/24'
p2338
aS'206.3.238.0/24'
p2339
aS'206.3.239.0/24'
p2340
aS'206.3.240.0/21'
p2341
aS'206.3.240.0/24'
p2342
aS'206.3.241.0/24'
p2343
aS'206.3.242.0/24'
p2344
aS'206.3.243.0/24'
p2345
aS'206.3.244.0/24'
p2346
aS'206.3.245.0/24'
p2347
aS'206.3.246.0/24'
p2348
aS'206.3.247.0/24'
p2349
aS'206.3.248.0/22'
p2350
aS'206.3.248.0/24'
p2351
aS'206.3.249.0/24'
p2352
aS'206.3.250.0/24'
p2353
aS'206.3.251.0/24'
p2354
aS'206.3.252.0/22'
p2355
aS'206.3.252.0/23'
p2356
aS'206.3.252.0/24'
p2357
aS'206.3.253.0/24'
p2358
aS'206.3.254.0/23'
p2359
aS'206.3.254.0/24'
p2360
aS'206.3.255.0/24'
p2361
aS'206.4.0.0/14'
p2362
aS'206.6.158.0/24'
p2363
aS'206.6.159.0/24'
p2364
aS'206.7.12.0/23'
p2365
aS'206.7.158.0/24'
p2366
aS'206.14.1.0/24'
p2367
aS'206.14.42.0/24'
p2368
aS'206.14.48.0/24'
p2369
aS'206.14.49.0/24'
p2370
aS'206.14.54.0/23'
p2371
aS'206.14.73.0/24'
p2372
aS'206.14.74.0/23'
p2373
aS'206.14.220.0/22'
p2374
aS'206.42.0.0/15'
p2375
aS'206.43.129.0/24'
p2376
aS'206.54.244.0/23'
p2377
aS'206.54.248.0/23'
p2378
aS'206.62.0.0/16'
p2379
aS'206.68.116.0/22'
p2380
aS'206.69.208.0/24'
p2381
aS'206.84.0.0/15'
p2382
aS'206.85.0.0/16'
p2383
aS'206.108.1.0/24'
p2384
aS'206.119.0.0/16'
p2385
aS'206.125.48.0/22'
p2386
aS'206.125.52.0/24'
p2387
aS'206.125.56.0/23'
p2388
aS'206.125.58.0/24'
p2389
aS'206.125.60.0/22'
p2390
aS'206.144.128.0/20'
p2391
aS'206.148.0.0/15'
p2392
aS'206.183.224.0/19'
p2393
aS'206.184.16.0/24'
p2394
aS'206.184.224.0/23'
p2395
aS'206.185.0.0/16'
p2396
aS'206.185.10.0/24'
p2397
aS'206.185.11.0/24'
p2398
aS'206.185.12.0/24'
p2399
aS'206.185.24.0/24'
p2400
aS'206.208.104.0/24'
p2401
aS'206.222.45.0/24'
p2402
aS'206.232.0.0/14'
p2403
aS'206.233.94.0/24'
p2404
aS'206.234.191.0/24'
p2405
aS'206.236.0.0/15'
p2406
aS'206.238.0.0/16'
p2407
aS'206.239.24.0/24'
p2408
aS'206.239.151.0/24'
p2409
aS'206.239.189.0/24'
p2410
aS'206.249.0.0/16'
p2411
aS'206.249.72.0/24'
p2412
aS'206.249.73.0/24'
p2413
aS'206.249.74.0/24'
p2414
aS'206.249.75.0/24'
p2415
aS'206.249.76.0/24'
p2416
aS'206.249.77.0/24'
p2417
aS'206.250.0.0/16'
p2418
aS'207.7.4.0/22'
p2419
aS'207.7.16.0/23'
p2420
aS'207.7.17.0/24'
p2421
aS'207.7.56.0/21'
p2422
aS'207.20.25.0/24'
p2423
aS'207.20.26.0/24'
p2424
aS'207.20.28.0/24'
p2425
aS'207.20.30.0/24'
p2426
aS'207.20.96.0/23'
p2427
aS'207.20.118.0/24'
p2428
aS'207.20.169.0/24'
p2429
aS'207.20.175.0/24'
p2430
aS'207.21.3.0/24'
p2431
aS'207.21.4.0/24'
p2432
aS'207.21.157.0/24'
p2433
aS'207.21.167.0/24'
p2434
aS'207.21.185.0/24'
p2435
aS'207.22.77.0/24'
p2436
aS'207.31.64.0/18'
p2437
aS'207.32.116.0/24'
p2438
aS'207.32.123.0/24'
p2439
aS'207.33.40.0/24'
p2440
aS'207.33.118.0/23'
p2441
aS'207.33.120.0/22'
p2442
aS'207.33.124.0/24'
p2443
aS'207.60.0.0/16'
p2444
aS'207.60.0.0/17'
p2445
aS'207.60.128.0/17'
p2446
aS'207.67.135.0/24'
p2447
aS'207.91.97.0/24'
p2448
aS'207.97.83.0/24'
p2449
aS'207.112.140.0/22'
p2450
aS'207.112.192.0/21'
p2451
aS'207.112.204.0/22'
p2452
aS'207.112.205.0/24'
p2453
aS'207.137.78.0/23'
p2454
aS'207.142.0.0/16'
p2455
aS'207.142.131.0/24'
p2456
aS'207.150.150.0/24'
p2457
aS'207.152.64.0/24'
p2458
aS'207.152.116.0/24'
p2459
aS'207.153.64.0/18'
p2460
aS'207.153.179.0/24'
p2461
aS'207.197.128.0/23'
p2462
aS'207.198.236.0/22'
p2463
aS'207.207.160.0/19'
p2464
aS'207.227.96.0/21'
p2465
aS'207.227.148.0/22'
p2466
aS'207.227.177.0/24'
p2467
aS'207.227.192.0/21'
p2468
aS'207.230.0.0/19'
p2469
aS'207.230.1.0/24'
p2470
aS'207.254.159.0/24'
p2471
aS'208.53.133.0/24'
p2472
aS'208.53.139.0/24'
p2473
aS'208.53.149.0/24'
p2474
aS'208.53.153.0/24'
p2475
aS'208.53.154.0/24'
p2476
aS'208.53.156.0/24'
p2477
aS'208.53.157.0/24'
p2478
aS'208.53.158.0/24'
p2479
aS'208.53.159.0/24'
p2480
aS'208.53.164.0/24'
p2481
aS'208.53.166.0/24'
p2482
aS'208.53.168.0/24'
p2483
aS'208.53.174.0/24'
p2484
aS'208.53.177.0/24'
p2485
aS'208.53.178.0/24'
p2486
aS'208.53.179.0/24'
p2487
aS'208.53.180.0/24'
p2488
aS'208.53.183.0/24'
p2489
aS'208.53.190.0/24'
p2490
aS'208.67.27.0/24'
p2491
aS'208.70.36.0/22'
p2492
aS'208.72.36.0/22'
p2493
aS'208.72.192.0/24'
p2494
aS'208.72.198.0/23'
p2495
aS'208.74.224.0/22'
p2496
aS'208.86.16.0/22'
p2497
aS'208.91.91.0/24'
p2498
aS'208.94.40.0/21'
p2499
aS'209.17.96.0/20'
p2500
aS'209.39.20.0/24'
p2501
aS'209.39.26.0/24'
p2502
aS'209.39.68.0/24'
p2503
aS'209.39.224.0/24'
p2504
aS'209.40.80.0/22'
p2505
aS'209.40.84.0/24'
p2506
aS'209.40.85.0/24'
p2507
aS'209.40.86.0/23'
p2508
aS'209.40.88.0/23'
p2509
aS'209.40.90.0/23'
p2510
aS'209.40.92.0/22'
p2511
aS'209.41.192.0/18'
p2512
aS'209.61.0.0/17'
p2513
aS'209.69.32.0/24'
p2514
aS'209.69.117.0/24'
p2515
aS'209.70.182.0/24'
p2516
aS'209.70.240.0/24'
p2517
aS'209.73.140.0/24'
p2518
aS'209.90.52.0/24'
p2519
aS'209.94.0.0/19'
p2520
aS'209.100.80.0/21'
p2521
aS'209.100.104.0/21'
p2522
aS'209.100.120.0/21'
p2523
aS'209.100.156.0/22'
p2524
aS'209.100.232.0/23'
p2525
aS'209.105.164.0/24'
p2526
aS'209.107.71.0/24'
p2527
aS'209.115.0.0/17'
p2528
aS'209.115.26.0/24'
p2529
aS'209.115.91.0/24'
p2530
aS'209.139.139.0/24'
p2531
aS'209.146.0.0/17'
p2532
aS'209.146.10.0/24'
p2533
aS'209.146.14.0/24'
p2534
aS'209.146.19.0/24'
p2535
aS'209.146.29.0/24'
p2536
aS'209.146.31.0/24'
p2537
aS'209.146.83.0/24'
p2538
aS'209.146.84.0/24'
p2539
aS'209.157.99.0/24'
p2540
aS'209.160.96.0/24'
p2541
aS'209.161.79.0/24'
p2542
aS'209.189.56.0/23'
p2543
aS'209.189.82.0/24'
p2544
aS'209.217.128.0/18'
p2545
aS'209.224.30.0/23'
p2546
aS'209.224.60.0/22'
p2547
aS'209.224.192.0/21'
p2548
aS'209.224.198.0/24'
p2549
aS'209.224.238.0/23'
p2550
aS'209.227.39.0/24'
p2551
aS'209.227.48.0/24'
p2552
aS'209.227.66.0/24'
p2553
aS'209.227.78.0/23'
p2554
aS'212.20.128.0/19'
p2555
aS'212.20.142.0/24'
p2556
aS'212.23.192.0/19'
p2557
aS'213.146.160.0/19'
p2558
aS'213.146.160.0/24'
p2559
aS'213.146.165.0/24'
p2560
aS'213.146.167.0/24'
p2561
aS'213.146.176.0/22'
p2562
aS'213.146.184.0/24'
p2563
aS'213.146.186.0/23'
p2564
aS'213.146.188.0/24'
p2565
aS'213.146.189.0/24'
p2566
aS'216.28.0.0/15'
p2567
aS'216.28.9.0/24'
p2568
aS'216.29.55.0/24'
p2569
aS'216.29.200.0/24'
p2570
aS'216.29.243.0/24'
p2571
aS'216.41.128.0/19'
p2572
aS'216.44.216.0/24'
p2573
aS'216.55.80.0/20'
p2574
aS'216.55.93.0/24'
p2575
aS'216.128.69.0/24'
p2576
aS'216.152.64.0/20'
p2577
aS'216.152.144.0/20'
p2578
aS'216.165.224.0/23'
p2579
aS'216.165.226.0/23'
p2580
aS'216.165.228.0/22'
p2581
aS'216.165.232.0/21'
p2582
aS'216.165.239.0/24'
p2583
aS'216.165.240.0/24'
p2584
aS'216.165.241.0/24'
p2585
aS'216.165.242.0/23'
p2586
aS'216.165.244.0/22'
p2587
aS'216.165.248.0/21'
p2588
aS'216.168.64.0/20'
p2589
aS'216.171.112.0/23'
p2590
aS'216.171.114.0/24'
p2591
aS'216.171.115.0/24'
p2592
aS'216.171.116.0/23'
p2593
aS'216.171.120.0/23'
p2594
aS'216.177.96.0/19'
p2595
aS'216.227.5.0/24'
p2596
aS'216.227.120.0/24'
p2597
aS'216.229.128.0/20'
p2598
aS'216.229.133.0/24'
p2599
aS'216.229.136.0/23'
p2600
aS'217.9.192.0/20'
p2601
aS'217.71.112.0/20'
p2602
aS'217.71.116.0/24'
p2603
aS'217.71.124.0/24'
p2604
aS'217.71.126.0/24'
p2605
aS'217.71.127.0/24'
p2606
aS'217.168.96.0/20'
p2607
aa(lp2608
S'2.16.0.0/23'
p2609
aS'2.16.4.0/24'
p2610
aS'2.16.5.0/24'
p2611
aS'2.16.34.0/24'
p2612
aS'2.16.41.0/24'
p2613
aS'2.16.76.0/23'
p2614
aS'2.16.78.0/23'
p2615
aS'2.16.80.0/23'
p2616
aS'2.16.82.0/23'
p2617
aS'2.16.138.0/23'
p2618
aS'2.16.158.0/24'
p2619
aS'2.16.164.0/23'
p2620
aS'2.16.174.0/23'
p2621
aS'2.16.182.0/23'
p2622
aS'2.16.184.0/23'
p2623
aS'2.16.186.0/23'
p2624
aS'2.16.188.0/23'
p2625
aS'2.16.190.0/23'
p2626
aS'2.16.208.0/24'
p2627
aS'2.16.209.0/24'
p2628
aS'2.16.210.0/24'
p2629
aS'2.16.211.0/24'
p2630
aS'2.16.212.0/22'
p2631
aS'2.17.248.0/22'
p2632
aS'2.18.144.0/20'
p2633
aS'2.18.176.0/20'
p2634
aS'2.18.224.0/22'
p2635
aS'2.18.232.0/22'
p2636
aS'2.19.192.0/20'
p2637
aS'2.20.48.0/22'
p2638
aS'2.21.32.0/20'
p2639
aS'2.21.48.0/20'
p2640
aS'2.21.160.0/20'
p2641
aS'2.21.176.0/20'
p2642
aS'2.21.192.0/20'
p2643
aS'2.21.236.0/22'
p2644
aS'2.21.241.0/24'
p2645
aS'2.22.0.0/22'
p2646
aS'2.22.8.0/22'
p2647
aS'2.22.12.0/22'
p2648
aS'2.22.24.0/22'
p2649
aS'2.22.28.0/22'
p2650
aS'2.22.49.0/24'
p2651
aS'2.22.56.0/22'
p2652
aS'2.22.63.0/24'
p2653
aS'2.22.64.0/20'
p2654
aS'2.22.80.0/20'
p2655
aS'2.22.96.0/20'
p2656
aS'2.22.128.0/20'
p2657
aS'2.22.192.0/20'
p2658
aS'2.22.208.0/20'
p2659
aS'2.22.225.0/24'
p2660
aS'2.22.231.0/24'
p2661
aS'2.22.244.0/23'
p2662
aS'2.22.246.0/23'
p2663
aS'2.22.254.0/23'
p2664
aS'2.23.64.0/20'
p2665
aS'2.23.80.0/20'
p2666
aS'2.23.96.0/20'
p2667
aS'2.23.224.0/20'
p2668
aS'2.23.240.0/20'
p2669
aS'5.133.190.0/24'
p2670
aS'23.12.0.0/20'
p2671
aS'23.12.16.0/20'
p2672
aS'23.13.240.0/20'
p2673
aS'23.14.0.0/20'
p2674
aS'23.14.192.0/20'
p2675
aS'23.32.18.0/23'
p2676
aS'23.32.20.0/23'
p2677
aS'23.32.24.0/23'
p2678
aS'23.32.26.0/23'
p2679
aS'23.32.32.0/20'
p2680
aS'23.45.152.0/22'
p2681
aS'23.45.156.0/22'
p2682
aS'23.45.176.0/20'
p2683
aS'23.45.192.0/20'
p2684
aS'23.45.228.0/22'
p2685
aS'23.45.232.0/22'
p2686
aS'23.45.240.0/20'
p2687
aS'23.51.96.0/20'
p2688
aS'23.51.112.0/20'
p2689
aS'23.51.160.0/20'
p2690
aS'23.51.176.0/20'
p2691
aS'23.51.192.0/20'
p2692
aS'23.51.208.0/20'
p2693
aS'23.51.224.0/20'
p2694
aS'23.51.240.0/20'
p2695
aS'23.52.0.0/20'
p2696
aS'23.52.16.0/20'
p2697
aS'23.58.208.0/20'
p2698
aS'23.60.72.0/22'
p2699
aS'23.60.76.0/23'
p2700
aS'23.60.80.0/20'
p2701
aS'23.60.96.0/20'
p2702
aS'23.67.39.0/24'
p2703
aS'23.67.40.0/24'
p2704
aS'23.90.192.0/18'
p2705
aS'23.192.120.0/23'
p2706
aS'23.192.172.0/22'
p2707
aS'23.192.240.0/20'
p2708
aS'23.193.0.0/20'
p2709
aS'23.197.62.0/23'
p2710
aS'23.197.248.0/22'
p2711
aS'23.198.32.0/20'
p2712
aS'23.198.48.0/20'
p2713
aS'23.205.122.0/23'
p2714
aS'23.205.174.0/23'
p2715
aS'23.205.224.0/20'
p2716
aS'23.205.240.0/20'
p2717
aS'23.206.0.0/20'
p2718
aS'23.206.10.0/23'
p2719
aS'23.206.12.0/22'
p2720
aS'23.206.48.0/20'
p2721
aS'23.206.64.0/20'
p2722
aS'23.212.180.0/22'
p2723
aS'23.212.184.0/23'
p2724
aS'23.212.208.0/20'
p2725
aS'23.212.224.0/20'
p2726
aS'23.235.48.0/20'
p2727
aS'23.252.69.0/24'
p2728
aS'23.252.73.0/24'
p2729
aS'23.252.77.0/24'
p2730
aS'23.252.78.0/24'
p2731
aS'37.58.40.0/22'
p2732
aS'46.33.64.0/19'
p2733
aS'46.33.73.0/24'
p2734
aS'63.142.0.0/20'
p2735
aS'64.5.114.0/24'
p2736
aS'64.5.115.0/24'
p2737
aS'64.5.118.0/24'
p2738
aS'64.5.119.0/24'
p2739
aS'64.5.120.0/24'
p2740
aS'64.5.121.0/24'
p2741
aS'64.5.123.0/24'
p2742
aS'64.5.124.0/24'
p2743
aS'64.5.125.0/24'
p2744
aS'64.5.126.0/24'
p2745
aS'64.5.127.0/24'
p2746
aS'65.255.39.0/24'
p2747
aS'66.181.160.0/19'
p2748
aS'66.231.64.0/20'
p2749
aS'66.232.48.0/23'
p2750
aS'67.199.192.0/19'
p2751
aS'67.199.224.0/19'
p2752
aS'69.22.174.0/24'
p2753
aS'69.160.0.0/21'
p2754
aS'69.192.6.0/24'
p2755
aS'70.39.152.0/21'
p2756
aS'70.39.174.0/23'
p2757
aS'70.40.96.0/19'
p2758
aS'72.37.144.0/22'
p2759
aS'72.246.70.0/23'
p2760
aS'74.119.45.0/24'
p2761
aS'74.119.46.0/24'
p2762
aS'77.67.0.0/17'
p2763
aS'78.24.120.0/21'
p2764
aS'83.150.211.0/24'
p2765
aS'85.195.74.0/24'
p2766
aS'88.221.82.0/24'
p2767
aS'88.221.192.0/21'
p2768
aS'88.221.200.0/21'
p2769
aS'88.221.236.0/22'
p2770
aS'89.149.128.0/18'
p2771
aS'89.167.128.0/21'
p2772
aS'92.122.48.0/24'
p2773
aS'92.122.116.0/22'
p2774
aS'92.122.232.0/21'
p2775
aS'92.122.244.0/22'
p2776
aS'92.122.248.0/22'
p2777
aS'92.122.252.0/23'
p2778
aS'92.122.254.0/23'
p2779
aS'92.123.228.0/22'
p2780
aS'93.92.16.0/22'
p2781
aS'95.100.96.0/20'
p2782
aS'95.101.120.0/22'
p2783
aS'95.101.188.0/22'
p2784
aS'95.101.208.0/20'
p2785
aS'107.150.160.0/24'
p2786
aS'107.150.161.0/24'
p2787
aS'107.150.180.0/24'
p2788
aS'107.150.181.0/24'
p2789
aS'107.150.182.0/24'
p2790
aS'107.178.48.0/20'
p2791
aS'107.182.240.0/20'
p2792
aS'109.238.128.0/20'
p2793
aS'136.228.0.0/16'
p2794
aS'138.43.0.0/16'
p2795
aS'141.136.96.0/20'
p2796
aS'162.222.95.0/24'
p2797
aS'162.248.84.0/22'
p2798
aS'162.250.32.0/21'
p2799
aS'162.253.220.0/22'
p2800
aS'172.225.164.0/23'
p2801
aS'172.225.212.0/22'
p2802
aS'172.225.224.0/20'
p2803
aS'172.225.240.0/21'
p2804
aS'172.225.248.0/22'
p2805
aS'172.225.252.0/23'
p2806
aS'172.229.50.0/23'
p2807
aS'172.229.64.0/20'
p2808
aS'172.229.80.0/20'
p2809
aS'172.229.96.0/22'
p2810
aS'173.223.54.0/24'
p2811
aS'173.223.224.0/24'
p2812
aS'173.223.225.0/24'
p2813
aS'173.241.128.0/20'
p2814
aS'173.241.136.0/22'
p2815
aS'173.241.140.0/22'
p2816
aS'178.208.160.0/24'
p2817
aS'178.208.161.0/24'
p2818
aS'178.208.162.0/24'
p2819
aS'178.208.163.0/24'
p2820
aS'178.208.164.0/24'
p2821
aS'178.208.165.0/24'
p2822
aS'178.208.166.0/24'
p2823
aS'178.208.167.0/24'
p2824
aS'178.208.168.0/24'
p2825
aS'178.208.169.0/24'
p2826
aS'178.208.170.0/24'
p2827
aS'178.208.171.0/24'
p2828
aS'178.208.172.0/24'
p2829
aS'178.208.173.0/24'
p2830
aS'178.208.174.0/24'
p2831
aS'178.208.175.0/24'
p2832
aS'178.208.176.0/24'
p2833
aS'178.208.177.0/24'
p2834
aS'178.208.178.0/24'
p2835
aS'178.208.179.0/24'
p2836
aS'178.208.180.0/24'
p2837
aS'178.208.181.0/24'
p2838
aS'178.208.182.0/24'
p2839
aS'178.208.183.0/24'
p2840
aS'178.208.184.0/24'
p2841
aS'178.208.185.0/24'
p2842
aS'178.208.186.0/24'
p2843
aS'178.208.187.0/24'
p2844
aS'178.208.188.0/24'
p2845
aS'178.208.189.0/24'
p2846
aS'178.208.190.0/24'
p2847
aS'178.208.191.0/24'
p2848
aS'183.182.80.0/22'
p2849
aS'183.182.81.0/24'
p2850
aS'184.26.165.0/24'
p2851
aS'184.27.202.0/24'
p2852
aS'184.28.74.0/24'
p2853
aS'184.28.75.0/24'
p2854
aS'184.28.80.0/24'
p2855
aS'184.28.81.0/24'
p2856
aS'184.51.121.0/24'
p2857
aS'184.51.148.0/24'
p2858
aS'184.51.149.0/24'
p2859
aS'184.164.0.0/18'
p2860
aS'190.12.224.0/20'
p2861
aS'190.92.128.0/24'
p2862
aS'190.92.129.0/24'
p2863
aS'190.92.130.0/24'
p2864
aS'190.92.131.0/24'
p2865
aS'190.92.132.0/24'
p2866
aS'190.92.133.0/24'
p2867
aS'190.92.134.0/24'
p2868
aS'190.92.135.0/24'
p2869
aS'190.92.216.0/21'
p2870
aS'190.92.224.0/21'
p2871
aS'190.92.232.0/21'
p2872
aS'190.92.240.0/21'
p2873
aS'190.92.248.0/21'
p2874
aS'190.151.58.0/24'
p2875
aS'192.43.154.0/23'
p2876
aS'192.43.154.0/24'
p2877
aS'192.43.156.0/24'
p2878
aS'192.43.157.0/24'
p2879
aS'192.43.158.0/24'
p2880
aS'192.43.159.0/24'
p2881
aS'192.43.160.0/24'
p2882
aS'192.119.48.0/20'
p2883
aS'192.161.2.224/27'
p2884
aS'192.196.192.0/20'
p2885
aS'192.209.20.0/22'
p2886
aS'192.243.64.0/20'
p2887
aS'193.93.112.0/22'
p2888
aS'194.79.36.0/22'
p2889
aS'198.49.219.0/24'
p2890
aS'198.133.210.0/24'
p2891
aS'199.168.60.0/22'
p2892
aS'199.180.163.0/24'
p2893
aS'199.229.224.0/21'
p2894
aS'200.80.80.0/20'
p2895
aS'204.19.239.0/24'
p2896
aS'204.108.29.0/24'
p2897
aS'204.108.31.0/24'
p2898
aS'204.140.76.0/24'
p2899
aS'204.152.224.0/24'
p2900
aS'205.210.171.0/24'
p2901
aS'205.210.172.0/22'
p2902
aS'206.246.93.0/24'
p2903
aS'207.199.159.0/24'
p2904
aS'207.199.190.0/24'
p2905
aS'207.246.205.0/24'
p2906
aS'208.86.20.0/24'
p2907
aS'208.86.24.0/24'
p2908
aS'208.86.25.0/24'
p2909
aS'208.86.26.0/24'
p2910
aS'208.86.27.0/24'
p2911
aS'213.200.64.0/18'
p2912
aS'213.232.122.0/24'
p2913
aS'213.232.127.0/24'
p2914
aS'213.254.192.0/18'
p2915
aS'213.254.213.0/24'
p2916
aS'213.254.227.0/24'
p2917
aS'216.25.241.0/24'
p2918
aS'216.25.243.0/24'
p2919
aS'216.25.244.0/24'
p2920
aS'216.25.249.0/24'
p2921
aS'216.25.252.0/24'
p2922
aS'216.183.208.0/21'
p2923
aS'216.185.35.0/24'
p2924
aS'216.185.58.0/24'
p2925
aS'216.221.144.0/20'
p2926
aa.(lp0
(lp1
S'18.0.0.0/8'
p2
aS'18.3.46.0/24'
p3
aS'18.3.47.0/24'
p4
aS'18.3.49.0/24'
p5
aS'18.4.38.0/24'
p6
aS'18.4.70.0/24'
p7
aS'18.7.10.0/24'
p8
aS'18.7.21.0/24'
p9
aS'18.7.71.0/24'
p10
aS'18.9.0.0/24'
p11
aS'18.9.1.0/24'
p12
aS'18.9.21.0/24'
p13
aS'18.9.22.0/24'
p14
aS'18.9.25.0/24'
p15
aS'18.9.37.0/24'
p16
aS'18.9.46.0/24'
p17
aS'18.9.47.0/24'
p18
aS'18.9.49.0/24'
p19
aS'18.9.60.0/24'
p20
aS'18.9.62.0/24'
p21
aS'18.9.90.0/24'
p22
aS'18.72.0.0/24'
p23
aS'18.177.0.0/21'
p24
aS'31.192.64.0/19'
p25
aS'41.78.72.0/22'
p26
aS'41.78.72.0/24'
p27
aS'41.78.73.0/24'
p28
aS'49.32.0.0/24'
p29
aS'49.40.0.0/24'
p30
aS'103.16.19.0/24'
p31
aS'103.254.94.0/24'
p32
aS'103.254.167.0/24'
p33
aS'128.30.0.0/15'
p34
aS'128.52.0.0/16'
p35
aS'185.33.32.0/22'
p36
aS'192.52.61.0/24'
p37
aS'192.52.62.0/24'
p38
aS'192.52.63.0/24'
p39
aS'192.52.64.0/24'
p40
aS'192.52.65.0/24'
p41
aS'192.54.222.0/24'
p42
aS'200.63.48.0/22'
p43
aS'216.115.235.0/24'
p44
aa(lp45
S'208.116.129.0/24'
p46
aa(lp47
S'63.148.46.0/24'
p48
aS'63.239.204.0/23'
p49
aS'206.252.209.0/24'
p50
aS'207.251.96.0/23'
p51
aa.(lp0
(lp1
S'5.240.0.0/14'
p2
aS'37.0.128.0/17'
p3
aS'37.0.216.0/22'
p4
aS'37.0.220.0/22'
p5
aS'37.2.0.0/15'
p6
aS'37.196.0.0/14'
p7
aS'46.17.184.0/21'
p8
aS'62.181.64.0/18'
p9
aS'77.216.0.0/14'
p10
aS'80.73.176.0/24'
p11
aS'80.85.112.0/20'
p12
aS'80.170.0.0/16'
p13
aS'83.176.0.0/12'
p14
aS'85.232.160.0/19'
p15
aS'86.32.0.0/15'
p16
aS'88.86.50.0/24'
p17
aS'89.31.248.0/24'
p18
aS'90.128.0.0/12'
p19
aS'90.144.0.0/16'
p20
aS'90.144.0.0/19'
p21
aS'90.144.32.0/20'
p22
aS'90.144.48.0/20'
p23
aS'90.144.96.0/19'
p24
aS'90.144.128.0/17'
p25
aS'91.128.0.0/14'
p26
aS'91.195.32.0/23'
p27
aS'91.198.202.0/24'
p28
aS'91.220.98.0/24'
p29
aS'91.220.150.0/24'
p30
aS'91.226.36.0/24'
p31
aS'91.226.37.0/24'
p32
aS'92.43.32.0/21'
p33
aS'93.94.208.0/21'
p34
aS'94.186.0.0/17'
p35
aS'94.186.0.0/19'
p36
aS'94.186.32.0/21'
p37
aS'94.186.40.0/21'
p38
aS'94.186.48.0/20'
p39
aS'94.186.64.0/18'
p40
aS'130.244.0.0/16'
p41
aS'134.128.92.0/22'
p42
aS'138.106.0.0/16'
p43
aS'139.122.0.0/16'
p44
aS'139.122.192.0/20'
p45
aS'148.148.0.0/16'
p46
aS'159.72.0.0/17'
p47
aS'159.72.192.0/18'
p48
aS'176.64.0.0/16'
p49
aS'176.68.0.0/14'
p50
aS'176.69.0.0/16'
p51
aS'176.221.86.0/23'
p52
aS'185.2.228.0/22'
p53
aS'185.2.228.0/23'
p54
aS'188.65.152.0/21'
p55
aS'192.36.18.0/23'
p56
aS'192.36.19.0/24'
p57
aS'192.36.43.0/24'
p58
aS'192.36.55.0/24'
p59
aS'192.36.74.0/23'
p60
aS'192.36.76.0/22'
p61
aS'192.36.80.0/24'
p62
aS'192.55.42.0/24'
p63
aS'192.71.77.0/24'
p64
aS'192.71.94.0/24'
p65
aS'192.71.173.0/24'
p66
aS'192.71.173.128/25'
p67
aS'192.71.180.0/24'
p68
aS'192.71.219.0/24'
p69
aS'192.71.220.0/24'
p70
aS'192.71.228.0/24'
p71
aS'192.121.32.0/24'
p72
aS'192.121.49.0/24'
p73
aS'192.121.104.0/24'
p74
aS'192.121.110.0/24'
p75
aS'192.121.204.0/22'
p76
aS'192.121.208.0/23'
p77
aS'192.121.210.0/24'
p78
aS'192.137.161.0/24'
p79
aS'192.137.162.0/24'
p80
aS'192.137.163.0/24'
p81
aS'192.137.164.0/24'
p82
aS'192.165.10.0/24'
p83
aS'192.165.81.0/24'
p84
aS'192.165.142.0/24'
p85
aS'192.165.191.0/24'
p86
aS'192.165.243.0/24'
p87
aS'192.176.6.0/24'
p88
aS'192.176.170.0/24'
p89
aS'192.176.208.0/21'
p90
aS'192.176.216.0/22'
p91
aS'192.176.220.0/23'
p92
aS'192.176.222.0/24'
p93
aS'192.176.239.0/24'
p94
aS'192.176.242.0/24'
p95
aS'193.9.59.0/24'
p96
aS'193.10.144.0/24'
p97
aS'193.12.0.0/14'
p98
aS'193.12.144.0/24'
p99
aS'193.41.214.0/23'
p100
aS'193.41.224.0/24'
p101
aS'193.45.52.0/24'
p102
aS'193.138.74.0/24'
p103
aS'193.180.175.0/24'
p104
aS'193.180.197.0/24'
p105
aS'193.180.206.0/23'
p106
aS'193.180.206.0/24'
p107
aS'193.180.216.0/24'
p108
aS'193.181.1.0/24'
p109
aS'193.181.189.0/24'
p110
aS'193.182.230.0/24'
p111
aS'193.182.231.0/24'
p112
aS'193.182.232.0/24'
p113
aS'193.182.233.0/24'
p114
aS'193.183.4.0/24'
p115
aS'193.183.50.0/23'
p116
aS'193.183.52.0/23'
p117
aS'193.183.62.0/23'
p118
aS'193.183.97.0/24'
p119
aS'193.183.152.0/23'
p120
aS'193.183.159.0/24'
p121
aS'193.183.160.0/24'
p122
aS'193.183.252.0/24'
p123
aS'193.216.0.0/15'
p124
aS'193.216.70.0/23'
p125
aS'193.216.73.0/24'
p126
aS'193.216.74.0/23'
p127
aS'193.216.148.0/23'
p128
aS'193.216.150.0/24'
p129
aS'193.216.160.0/20'
p130
aS'193.216.176.0/21'
p131
aS'193.216.188.0/22'
p132
aS'193.216.212.0/22'
p133
aS'193.216.220.0/22'
p134
aS'193.216.224.0/21'
p135
aS'193.216.244.0/24'
p136
aS'193.216.245.0/24'
p137
aS'193.216.246.0/23'
p138
aS'193.216.248.0/23'
p139
aS'193.217.192.0/21'
p140
aS'193.217.200.0/22'
p141
aS'193.217.210.0/23'
p142
aS'193.217.216.0/22'
p143
aS'193.217.248.0/21'
p144
aS'193.234.142.0/24'
p145
aS'193.234.169.0/24'
p146
aS'193.234.170.0/24'
p147
aS'193.234.171.0/24'
p148
aS'193.234.175.0/24'
p149
aS'193.234.176.0/24'
p150
aS'193.234.194.0/24'
p151
aS'193.234.207.128/25'
p152
aS'193.235.44.0/24'
p153
aS'193.235.80.0/24'
p154
aS'193.241.250.0/24'
p155
aS'193.242.184.0/22'
p156
aS'194.14.15.0/24'
p157
aS'194.14.160.0/24'
p158
aS'194.14.166.0/24'
p159
aS'194.14.167.0/24'
p160
aS'194.14.205.0/24'
p161
aS'194.14.205.0/25'
p162
aS'194.14.205.128/25'
p163
aS'194.14.216.0/24'
p164
aS'194.14.248.0/24'
p165
aS'194.68.121.0/24'
p166
aS'194.68.198.0/23'
p167
aS'194.68.208.0/24'
p168
aS'194.68.228.0/23'
p169
aS'194.68.228.0/24'
p170
aS'194.68.229.0/24'
p171
aS'194.68.237.0/24'
p172
aS'194.71.21.0/24'
p173
aS'194.71.30.0/24'
p174
aS'194.71.31.0/24'
p175
aS'194.71.85.0/24'
p176
aS'194.71.110.0/24'
p177
aS'194.71.110.0/25'
p178
aS'194.71.110.128/25'
p179
aS'194.71.113.0/24'
p180
aS'194.71.143.0/24'
p181
aS'194.71.174.0/23'
p182
aS'194.71.176.0/23'
p183
aS'194.71.176.0/24'
p184
aS'194.103.19.0/24'
p185
aS'194.103.20.0/23'
p186
aS'194.103.47.0/24'
p187
aS'194.103.50.0/24'
p188
aS'194.103.55.0/24'
p189
aS'194.103.60.0/24'
p190
aS'194.103.140.0/24'
p191
aS'194.103.187.0/24'
p192
aS'194.114.140.0/24'
p193
aS'194.114.142.0/24'
p194
aS'194.132.54.0/23'
p195
aS'194.165.59.0/24'
p196
aS'195.14.25.0/24'
p197
aS'195.78.36.0/23'
p198
aS'195.93.252.0/23'
p199
aS'195.234.150.0/24'
p200
aS'212.53.96.0/19'
p201
aS'212.53.96.0/22'
p202
aS'212.53.100.0/22'
p203
aS'212.53.104.0/22'
p204
aS'212.53.108.0/22'
p205
aS'212.53.112.0/22'
p206
aS'212.53.116.0/22'
p207
aS'212.53.120.0/22'
p208
aS'212.53.124.0/22'
p209
aS'212.107.32.0/19'
p210
aS'212.107.56.0/21'
p211
aS'212.107.56.0/22'
p212
aS'212.107.60.0/22'
p213
aS'212.119.128.0/19'
p214
aS'212.151.0.0/16'
p215
aS'212.152.0.0/19'
p216
aS'212.162.160.0/19'
p217
aS'212.247.0.0/16'
p218
aS'213.100.0.0/14'
p219
aS'213.130.192.0/19'
p220
aS'213.173.192.0/19'
p221
aS'217.25.240.0/20'
p222
aS'217.73.96.0/20'
p223
aS'217.78.16.0/20'
p224
aa(lp225
S'2.16.14.0/23'
p226
aS'2.16.16.0/23'
p227
aS'2.16.18.0/23'
p228
aS'2.16.20.0/23'
p229
aS'2.16.22.0/23'
p230
aS'2.16.24.0/23'
p231
aS'2.16.35.0/24'
p232
aS'2.16.148.0/23'
p233
aS'2.16.176.0/24'
p234
aS'2.16.180.0/23'
p235
aS'2.18.192.0/20'
p236
aS'2.19.96.0/20'
p237
aS'2.21.228.0/22'
p238
aS'2.21.232.0/22'
p239
aS'2.22.44.0/22'
p240
aS'2.22.236.0/23'
p241
aS'2.22.242.0/23'
p242
aS'2.22.248.0/23'
p243
aS'2.23.0.0/20'
p244
aS'2.23.16.0/20'
p245
aS'2.23.20.0/22'
p246
aS'2.23.24.0/22'
p247
aS'2.23.28.0/22'
p248
aS'2.23.32.0/20'
p249
aS'2.23.36.0/22'
p250
aS'2.23.40.0/22'
p251
aS'2.23.44.0/22'
p252
aS'2.23.48.0/20'
p253
aS'2.23.160.0/20'
p254
aS'2.23.192.0/20'
p255
aS'2.23.196.0/22'
p256
aS'2.23.200.0/22'
p257
aS'2.23.204.0/22'
p258
aS'2.23.208.0/20'
p259
aS'23.3.144.0/20'
p260
aS'23.3.148.0/22'
p261
aS'23.3.152.0/22'
p262
aS'23.3.156.0/22'
p263
aS'23.15.64.0/20'
p264
aS'23.32.14.0/23'
p265
aS'23.32.16.0/23'
p266
aS'23.33.48.0/22'
p267
aS'23.33.188.0/22'
p268
aS'23.33.208.0/20'
p269
aS'23.33.224.0/20'
p270
aS'23.33.240.0/22'
p271
aS'23.36.144.0/20'
p272
aS'23.36.148.0/22'
p273
aS'23.36.152.0/22'
p274
aS'23.36.156.0/22'
p275
aS'23.36.160.0/20'
p276
aS'23.36.164.0/22'
p277
aS'23.36.168.0/22'
p278
aS'23.36.172.0/22'
p279
aS'23.36.176.0/20'
p280
aS'23.36.192.0/20'
p281
aS'23.36.196.0/22'
p282
aS'23.36.200.0/22'
p283
aS'23.36.204.0/22'
p284
aS'23.36.208.0/20'
p285
aS'23.36.224.0/20'
p286
aS'23.36.228.0/22'
p287
aS'23.36.232.0/22'
p288
aS'23.36.236.0/22'
p289
aS'23.36.240.0/20'
p290
aS'23.36.240.0/22'
p291
aS'23.36.244.0/22'
p292
aS'23.36.248.0/22'
p293
aS'23.36.252.0/22'
p294
aS'23.40.160.0/20'
p295
aS'23.41.16.0/20'
p296
aS'23.45.128.0/20'
p297
aS'23.45.144.0/22'
p298
aS'23.45.148.0/22'
p299
aS'23.45.160.0/20'
p300
aS'23.46.24.0/23'
p301
aS'23.46.28.0/23'
p302
aS'23.46.30.0/23'
p303
aS'23.48.156.0/22'
p304
aS'23.48.176.0/20'
p305
aS'23.48.180.0/22'
p306
aS'23.48.184.0/22'
p307
aS'23.48.188.0/22'
p308
aS'23.48.192.0/20'
p309
aS'23.48.208.0/22'
p310
aS'23.48.212.0/23'
p311
aS'23.48.214.0/23'
p312
aS'23.48.216.0/22'
p313
aS'23.48.224.0/20'
p314
aS'23.48.228.0/22'
p315
aS'23.48.232.0/22'
p316
aS'23.48.236.0/22'
p317
aS'23.49.192.0/20'
p318
aS'23.55.132.0/22'
p319
aS'23.55.240.0/20'
p320
aS'23.58.94.0/23'
p321
aS'23.59.36.0/22'
p322
aS'23.59.40.0/22'
p323
aS'23.59.44.0/22'
p324
aS'23.59.48.0/20'
p325
aS'23.59.64.0/20'
p326
aS'23.59.68.0/22'
p327
aS'23.59.72.0/22'
p328
aS'23.59.76.0/22'
p329
aS'23.59.80.0/22'
p330
aS'23.63.228.0/23'
p331
aS'23.63.240.0/20'
p332
aS'23.67.80.0/20'
p333
aS'23.67.96.0/20'
p334
aS'23.202.116.0/22'
p335
aS'23.202.120.0/23'
p336
aS'23.202.128.0/20'
p337
aS'23.202.144.0/20'
p338
aS'31.222.48.0/24'
p339
aS'31.222.49.0/24'
p340
aS'31.222.50.0/24'
p341
aS'31.222.51.0/24'
p342
aS'31.222.52.0/24'
p343
aS'31.222.53.0/24'
p344
aS'31.222.54.0/24'
p345
aS'62.25.128.0/17'
p346
aS'62.136.0.0/15'
p347
aS'62.208.0.0/16'
p348
aS'62.208.72.0/24'
p349
aS'62.208.144.0/20'
p350
aS'62.221.0.0/19'
p351
aS'63.130.0.0/16'
p352
aS'63.130.128.0/17'
p353
aS'63.130.128.0/20'
p354
aS'64.69.160.0/19'
p355
aS'80.247.52.0/23'
p356
aS'80.247.53.0/24'
p357
aS'80.247.54.0/24'
p358
aS'82.203.12.0/23'
p359
aS'82.203.16.0/24'
p360
aS'82.203.17.0/24'
p361
aS'82.203.18.0/24'
p362
aS'82.203.20.0/24'
p363
aS'82.203.21.0/24'
p364
aS'82.203.22.0/24'
p365
aS'82.203.23.0/24'
p366
aS'84.64.0.0/13'
p367
aS'85.118.152.0/24'
p368
aS'88.221.168.0/21'
p369
aS'88.221.214.0/24'
p370
aS'88.221.220.0/24'
p371
aS'89.145.168.0/21'
p372
aS'90.240.0.0/12'
p373
aS'90.244.0.0/14'
p374
aS'91.195.82.0/23'
p375
aS'91.199.74.0/24'
p376
aS'92.122.16.0/22'
p377
aS'92.122.100.0/23'
p378
aS'92.122.176.0/21'
p379
aS'92.122.184.0/22'
p380
aS'92.122.192.0/21'
p381
aS'92.122.200.0/22'
p382
aS'92.122.220.0/23'
p383
aS'92.123.70.0/24'
p384
aS'92.123.71.0/24'
p385
aS'92.123.112.0/20'
p386
aS'92.123.128.0/22'
p387
aS'92.123.132.0/22'
p388
aS'92.123.136.0/22'
p389
aS'92.123.144.0/24'
p390
aS'92.123.236.0/22'
p391
aS'93.186.144.0/21'
p392
aS'94.125.16.0/22'
p393
aS'94.125.16.0/23'
p394
aS'94.125.18.0/23'
p395
aS'95.100.32.0/20'
p396
aS'95.101.12.0/22'
p397
aS'95.101.16.0/22'
p398
aS'95.101.20.0/22'
p399
aS'95.101.24.0/22'
p400
aS'95.101.184.0/22'
p401
aS'95.101.224.0/20'
p402
aS'103.23.192.0/22'
p403
aS'129.221.182.0/24'
p404
aS'129.221.186.0/24'
p405
aS'129.221.187.0/24'
p406
aS'129.221.190.0/24'
p407
aS'141.1.0.0/16'
p408
aS'145.224.32.0/20'
p409
aS'145.224.144.0/20'
p410
aS'146.162.99.0/24'
p411
aS'146.162.192.0/23'
p412
aS'146.162.201.0/24'
p413
aS'146.162.240.0/23'
p414
aS'146.162.240.0/24'
p415
aS'146.162.241.0/24'
p416
aS'146.162.242.0/24'
p417
aS'146.162.243.0/24'
p418
aS'146.162.248.0/24'
p419
aS'149.254.120.0/23'
p420
aS'160.206.132.0/22'
p421
aS'166.63.160.0/19'
p422
aS'166.63.192.0/19'
p423
aS'166.63.199.0/24'
p424
aS'166.63.212.0/24'
p425
aS'166.63.215.0/24'
p426
aS'172.231.154.0/23'
p427
aS'172.232.48.0/20'
p428
aS'172.232.64.0/20'
p429
aS'172.232.80.0/22'
p430
aS'178.17.64.0/23'
p431
aS'178.17.66.0/23'
p432
aS'178.17.68.0/23'
p433
aS'178.17.70.0/23'
p434
aS'178.17.72.0/23'
p435
aS'184.28.84.0/23'
p436
aS'184.28.102.0/24'
p437
aS'184.28.103.0/24'
p438
aS'184.28.104.0/24'
p439
aS'184.28.105.0/24'
p440
aS'184.51.160.0/20'
p441
aS'184.51.248.0/22'
p442
aS'184.85.0.0/20'
p443
aS'184.86.96.0/22'
p444
aS'188.64.17.0/24'
p445
aS'193.35.158.0/23'
p446
aS'193.35.160.0/23'
p447
aS'193.37.229.0/24'
p448
aS'193.41.16.0/23'
p449
aS'193.98.8.0/22'
p450
aS'193.164.160.0/19'
p451
aS'193.195.8.0/22'
p452
aS'193.195.13.0/24'
p453
aS'193.195.36.0/22'
p454
aS'194.6.0.0/18'
p455
aS'194.6.1.0/24'
p456
aS'194.6.64.0/19'
p457
aS'194.9.240.0/24'
p458
aS'194.9.241.0/24'
p459
aS'194.29.76.0/24'
p460
aS'194.29.77.0/24'
p461
aS'194.32.213.0/24'
p462
aS'194.32.215.0/24'
p463
aS'194.34.190.0/24'
p464
aS'194.59.191.0/24'
p465
aS'194.63.0.0/24'
p466
aS'194.63.4.0/24'
p467
aS'194.63.9.0/24'
p468
aS'194.63.11.0/24'
p469
aS'194.63.16.0/24'
p470
aS'194.63.20.0/24'
p471
aS'194.63.21.0/24'
p472
aS'194.63.22.0/24'
p473
aS'194.63.23.0/24'
p474
aS'194.63.50.0/24'
p475
aS'194.63.76.0/24'
p476
aS'194.63.85.0/24'
p477
aS'194.63.88.0/24'
p478
aS'194.63.110.0/24'
p479
aS'194.63.111.0/24'
p480
aS'194.63.112.0/24'
p481
aS'194.63.113.0/24'
p482
aS'194.63.114.0/24'
p483
aS'194.63.115.0/24'
p484
aS'194.63.116.0/24'
p485
aS'194.63.117.0/24'
p486
aS'194.63.118.0/24'
p487
aS'194.63.119.0/24'
p488
aS'194.63.124.0/24'
p489
aS'194.63.125.0/24'
p490
aS'194.70.238.0/23'
p491
aS'194.70.252.0/22'
p492
aS'194.112.64.0/18'
p493
aS'194.159.2.0/24'
p494
aS'194.159.106.0/23'
p495
aS'194.159.128.0/24'
p496
aS'194.159.132.0/22'
p497
aS'194.159.136.0/23'
p498
aS'194.159.188.0/22'
p499
aS'194.176.128.0/19'
p500
aS'194.177.160.0/19'
p501
aS'194.205.0.0/16'
p502
aS'194.217.16.0/24'
p503
aS'194.217.172.0/23'
p504
aS'194.217.236.0/23'
p505
aS'194.217.244.0/24'
p506
aS'194.221.0.0/16'
p507
aS'194.221.40.0/24'
p508
aS'194.221.186.0/24'
p509
aS'195.2.0.0/19'
p510
aS'195.10.0.0/18'
p511
aS'195.11.59.0/24'
p512
aS'195.11.60.0/23'
p513
aS'195.27.0.0/16'
p514
aS'195.27.237.0/24'
p515
aS'195.44.0.0/16'
p516
aS'195.59.0.0/16'
p517
aS'195.59.108.0/22'
p518
aS'195.59.122.0/24'
p519
aS'195.59.160.0/24'
p520
aS'195.59.224.0/24'
p521
aS'195.59.226.0/23'
p522
aS'195.89.0.0/16'
p523
aS'195.107.47.0/24'
p524
aS'195.144.128.0/19'
p525
aS'195.173.128.0/20'
p526
aS'195.173.144.0/21'
p527
aS'195.173.153.0/24'
p528
aS'195.173.154.0/23'
p529
aS'195.173.156.0/22'
p530
aS'195.248.193.0/24'
p531
aS'198.11.128.0/24'
p532
aS'198.205.12.0/24'
p533
aS'202.89.16.0/21'
p534
aS'202.89.16.0/22'
p535
aS'203.169.56.0/21'
p536
aS'204.188.136.0/21'
p537
aS'204.188.136.0/24'
p538
aS'204.188.137.0/24'
p539
aS'204.188.138.0/24'
p540
aS'206.24.128.0/19'
p541
aS'206.28.184.0/21'
p542
aS'206.128.216.0/22'
p543
aS'207.50.128.0/24'
p544
aS'208.173.192.0/18'
p545
aS'208.175.144.0/20'
p546
aS'208.175.224.0/19'
p547
aS'212.62.0.0/19'
p548
aS'212.137.0.0/16'
p549
aS'212.137.32.0/20'
p550
aS'212.137.64.0/21'
p551
aS'212.158.0.0/17'
p552
aS'212.165.0.0/19'
p553
aS'212.165.10.0/24'
p554
aS'213.38.0.0/16'
p555
aS'213.185.192.0/19'
p556
aS'213.216.128.0/18'
p557
aS'216.31.192.0/20'
p558
aS'216.239.192.0/19'
p559
aS'217.135.102.0/24'
p560
aS'217.135.112.0/23'
p561
aS'217.161.0.0/16'
p562
aS'217.161.0.0/21'
p563
aS'217.161.56.0/21'
p564
aS'217.161.96.0/22'
p565
aa(lp566
S'103.10.232.0/24'
p567
aS'149.20.0.0/16'
p568
aS'154.17.0.0/16'
p569
aS'192.35.171.0/24'
p570
aS'192.101.98.0/24'
p571
aS'192.111.107.0/24'
p572
aS'192.147.236.0/24'
p573
aS'192.158.249.0/24'
p574
aS'192.160.237.0/24'
p575
aS'199.6.0.0/24'
p576
aS'199.6.12.0/24'
p577
aS'199.33.32.0/19'
p578
aS'199.43.133.0/24'
p579
aS'199.80.128.0/17'
p580
aS'204.152.184.0/21'
p581
aa(lp582
S'14.8.0.0/15'
p583
aS'14.10.0.0/15'
p584
aS'14.12.0.0/15'
p585
aS'14.101.0.0/16'
p586
aS'23.10.32.0/20'
p587
aS'23.42.112.0/20'
p588
aS'27.80.0.0/16'
p589
aS'27.81.0.0/16'
p590
aS'27.82.0.0/16'
p591
aS'27.83.0.0/16'
p592
aS'27.84.0.0/16'
p593
aS'27.85.0.0/16'
p594
aS'27.86.0.0/16'
p595
aS'27.87.0.0/16'
p596
aS'27.88.0.0/16'
p597
aS'27.89.0.0/16'
p598
aS'27.90.0.0/16'
p599
aS'27.91.0.0/16'
p600
aS'27.92.0.0/16'
p601
aS'27.93.0.0/16'
p602
aS'27.94.0.0/16'
p603
aS'27.95.0.0/16'
p604
aS'36.8.0.0/13'
p605
aS'49.132.0.0/14'
p606
aS'59.128.0.0/18'
p607
aS'59.128.64.0/19'
p608
aS'59.128.96.0/19'
p609
aS'59.128.128.0/17'
p610
aS'59.129.0.0/16'
p611
aS'59.130.0.0/16'
p612
aS'59.131.0.0/16'
p613
aS'59.132.0.0/16'
p614
aS'59.133.0.0/16'
p615
aS'59.134.0.0/16'
p616
aS'59.135.0.0/16'
p617
aS'59.136.0.0/16'
p618
aS'59.137.0.0/17'
p619
aS'59.137.128.0/17'
p620
aS'59.138.0.0/16'
p621
aS'59.139.0.0/16'
p622
aS'59.140.0.0/16'
p623
aS'59.141.0.0/16'
p624
aS'59.142.0.0/16'
p625
aS'59.143.0.0/16'
p626
aS'61.114.0.0/18'
p627
aS'61.117.0.0/17'
p628
aS'61.117.128.0/17'
p629
aS'61.120.0.0/17'
p630
aS'61.198.128.0/17'
p631
aS'61.200.128.0/17'
p632
aS'61.202.0.0/17'
p633
aS'61.204.0.0/17'
p634
aS'61.204.128.0/17'
p635
aS'61.215.0.0/17'
p636
aS'69.192.176.0/20'
p637
aS'101.102.96.0/22'
p638
aS'106.72.0.0/15'
p639
aS'106.128.0.0/11'
p640
aS'106.160.0.0/16'
p641
aS'106.161.0.0/16'
p642
aS'106.162.0.0/16'
p643
aS'106.163.0.0/16'
p644
aS'106.164.0.0/16'
p645
aS'106.165.0.0/16'
p646
aS'106.166.0.0/16'
p647
aS'106.167.0.0/16'
p648
aS'106.168.0.0/16'
p649
aS'106.169.0.0/16'
p650
aS'106.170.0.0/16'
p651
aS'106.171.0.0/16'
p652
aS'106.172.0.0/16'
p653
aS'106.173.0.0/16'
p654
aS'106.174.0.0/16'
p655
aS'106.175.0.0/16'
p656
aS'106.176.0.0/16'
p657
aS'106.177.0.0/16'
p658
aS'106.178.0.0/16'
p659
aS'106.179.0.0/16'
p660
aS'106.180.0.0/16'
p661
aS'106.181.0.0/16'
p662
aS'106.182.0.0/16'
p663
aS'106.184.0.0/18'
p664
aS'106.185.0.0/17'
p665
aS'106.185.128.0/18'
p666
aS'106.185.192.0/18'
p667
aS'106.186.0.0/18'
p668
aS'106.186.64.0/18'
p669
aS'106.186.128.0/18'
p670
aS'106.186.192.0/19'
p671
aS'106.186.224.0/19'
p672
aS'106.187.0.0/18'
p673
aS'106.187.64.0/18'
p674
aS'106.187.128.0/17'
p675
aS'106.188.0.0/16'
p676
aS'106.189.0.0/16'
p677
aS'106.190.0.0/15'
p678
aS'111.86.0.0/17'
p679
aS'111.86.128.0/17'
p680
aS'111.87.0.0/17'
p681
aS'111.87.128.0/17'
p682
aS'111.96.0.0/16'
p683
aS'111.97.0.0/16'
p684
aS'111.98.0.0/16'
p685
aS'111.99.0.0/16'
p686
aS'111.100.0.0/16'
p687
aS'111.101.0.0/16'
p688
aS'111.102.0.0/16'
p689
aS'111.103.0.0/16'
p690
aS'111.104.0.0/16'
p691
aS'111.105.0.0/16'
p692
aS'111.106.0.0/16'
p693
aS'111.107.0.0/16'
p694
aS'111.108.0.0/16'
p695
aS'111.109.0.0/16'
p696
aS'111.110.0.0/16'
p697
aS'111.111.0.0/16'
p698
aS'111.236.0.0/14'
p699
aS'113.59.228.0/22'
p700
aS'113.144.0.0/16'
p701
aS'113.145.0.0/16'
p702
aS'113.146.0.0/16'
p703
aS'113.147.0.0/16'
p704
aS'113.148.0.0/16'
p705
aS'113.149.0.0/16'
p706
aS'113.150.0.0/16'
p707
aS'113.151.0.0/16'
p708
aS'113.152.0.0/19'
p709
aS'113.152.32.0/19'
p710
aS'113.152.64.0/18'
p711
aS'113.152.128.0/17'
p712
aS'113.153.0.0/16'
p713
aS'113.154.0.0/16'
p714
aS'113.155.0.0/16'
p715
aS'113.156.0.0/16'
p716
aS'113.157.0.0/18'
p717
aS'113.157.64.0/18'
p718
aS'113.157.128.0/18'
p719
aS'113.157.192.0/19'
p720
aS'113.157.224.0/19'
p721
aS'113.158.0.0/16'
p722
aS'113.159.0.0/16'
p723
aS'114.16.0.0/16'
p724
aS'114.17.0.0/16'
p725
aS'114.18.0.0/16'
p726
aS'114.19.0.0/16'
p727
aS'114.20.0.0/15'
p728
aS'114.22.0.0/16'
p729
aS'118.152.0.0/16'
p730
aS'118.153.0.0/16'
p731
aS'118.154.0.0/16'
p732
aS'118.155.0.0/17'
p733
aS'118.155.128.0/18'
p734
aS'118.155.192.0/18'
p735
aS'118.156.0.0/16'
p736
aS'118.157.0.0/16'
p737
aS'118.158.0.0/16'
p738
aS'118.159.0.0/17'
p739
aS'118.159.128.0/18'
p740
aS'118.159.192.0/19'
p741
aS'118.159.224.0/19'
p742
aS'119.104.0.0/16'
p743
aS'119.105.0.0/16'
p744
aS'119.106.0.0/16'
p745
aS'119.107.0.0/17'
p746
aS'119.107.128.0/18'
p747
aS'119.107.192.0/18'
p748
aS'121.58.128.0/21'
p749
aS'121.104.0.0/16'
p750
aS'121.105.0.0/16'
p751
aS'121.106.0.0/16'
p752
aS'121.107.0.0/16'
p753
aS'121.108.0.0/16'
p754
aS'121.109.0.0/16'
p755
aS'121.110.0.0/16'
p756
aS'121.111.0.0/17'
p757
aS'121.111.128.0/18'
p758
aS'121.111.192.0/19'
p759
aS'121.111.224.0/19'
p760
aS'123.108.152.0/21'
p761
aS'124.109.128.0/17'
p762
aS'124.208.0.0/16'
p763
aS'124.209.0.0/16'
p764
aS'124.210.0.0/16'
p765
aS'124.211.0.0/19'
p766
aS'124.211.32.0/19'
p767
aS'124.211.64.0/18'
p768
aS'124.211.128.0/17'
p769
aS'124.212.0.0/16'
p770
aS'124.213.0.0/16'
p771
aS'124.214.0.0/16'
p772
aS'124.215.0.0/17'
p773
aS'124.215.128.0/18'
p774
aS'124.215.192.0/19'
p775
aS'124.215.224.0/19'
p776
aS'125.28.0.0/17'
p777
aS'125.28.128.0/17'
p778
aS'125.29.0.0/18'
p779
aS'125.29.64.0/18'
p780
aS'125.29.128.0/17'
p781
aS'125.48.0.0/16'
p782
aS'125.49.0.0/16'
p783
aS'125.50.0.0/16'
p784
aS'125.51.0.0/16'
p785
aS'125.52.0.0/16'
p786
aS'125.53.0.0/16'
p787
aS'125.54.0.0/16'
p788
aS'125.55.0.0/16'
p789
aS'132.190.106.0/24'
p790
aS'132.190.242.0/24'
p791
aS'133.32.200.0/22'
p792
aS'133.36.0.0/16'
p793
aS'133.72.0.0/16'
p794
aS'133.192.0.0/16'
p795
aS'133.253.0.0/16'
p796
aS'150.5.0.0/16'
p797
aS'150.47.0.0/16'
p798
aS'150.49.0.0/16'
p799
aS'150.57.0.0/16'
p800
aS'150.71.0.0/16'
p801
aS'150.96.0.0/24'
p802
aS'157.71.0.0/18'
p803
aS'157.71.21.0/24'
p804
aS'157.71.46.0/23'
p805
aS'157.71.64.0/18'
p806
aS'157.71.128.0/18'
p807
aS'157.72.0.0/16'
p808
aS'157.73.0.0/16'
p809
aS'157.74.0.0/16'
p810
aS'157.75.0.0/16'
p811
aS'157.108.0.0/16'
p812
aS'160.197.0.0/16'
p813
aS'163.48.0.0/16'
p814
aS'163.210.0.0/16'
p815
aS'163.224.128.0/17'
p816
aS'165.241.0.0/21'
p817
aS'165.241.8.0/22'
p818
aS'165.241.12.0/22'
p819
aS'165.241.64.0/18'
p820
aS'165.241.128.0/17'
p821
aS'175.108.0.0/16'
p822
aS'175.109.0.0/16'
p823
aS'175.128.0.0/16'
p824
aS'175.129.0.0/16'
p825
aS'175.130.0.0/16'
p826
aS'175.131.0.0/16'
p827
aS'175.132.0.0/16'
p828
aS'175.133.0.0/16'
p829
aS'175.134.0.0/16'
p830
aS'175.135.0.0/16'
p831
aS'182.248.0.0/18'
p832
aS'182.248.64.0/18'
p833
aS'182.248.128.0/18'
p834
aS'182.248.192.0/18'
p835
aS'182.249.0.0/16'
p836
aS'182.250.0.0/16'
p837
aS'182.251.0.0/16'
p838
aS'184.26.172.0/22'
p839
aS'184.26.208.0/20'
p840
aS'184.27.112.0/23'
p841
aS'184.29.48.0/23'
p842
aS'184.51.192.0/22'
p843
aS'185.32.77.0/24'
p844
aS'192.88.171.0/24'
p845
aS'192.91.74.0/24'
p846
aS'192.152.212.0/24'
p847
aS'198.21.16.0/24'
p848
aS'202.0.65.0/24'
p849
aS'202.0.66.0/24'
p850
aS'202.13.240.0/21'
p851
aS'202.15.128.0/18'
p852
aS'202.15.135.0/24'
p853
aS'202.16.192.0/21'
p854
aS'202.19.222.0/23'
p855
aS'202.24.120.0/23'
p856
aS'202.26.228.0/22'
p857
aS'202.35.16.0/20'
p858
aS'202.161.192.0/18'
p859
aS'202.164.64.0/19'
p860
aS'202.236.167.0/24'
p861
aS'202.236.182.0/23'
p862
aS'202.236.187.0/24'
p863
aS'202.237.80.0/21'
p864
aS'202.237.82.0/24'
p865
aS'202.237.83.0/24'
p866
aS'202.237.88.0/21'
p867
aS'202.239.128.0/18'
p868
aS'202.240.180.0/22'
p869
aS'202.242.115.0/24'
p870
aS'202.242.136.0/24'
p871
aS'202.244.96.0/22'
p872
aS'202.244.236.0/22'
p873
aS'202.245.32.0/20'
p874
aS'202.245.48.0/20'
p875
aS'202.245.115.0/24'
p876
aS'202.245.116.0/24'
p877
aS'202.245.117.0/24'
p878
aS'202.245.118.0/24'
p879
aS'202.245.162.0/24'
p880
aS'202.245.172.0/23'
p881
aS'202.245.174.0/24'
p882
aS'202.246.176.0/22'
p883
aS'202.250.16.0/24'
p884
aS'202.250.17.0/24'
p885
aS'202.250.18.0/24'
p886
aS'202.250.19.0/24'
p887
aS'202.250.20.0/24'
p888
aS'202.250.21.0/24'
p889
aS'202.250.22.0/24'
p890
aS'202.250.23.0/24'
p891
aS'202.250.24.0/24'
p892
aS'202.250.25.0/24'
p893
aS'202.250.26.0/24'
p894
aS'202.250.27.0/24'
p895
aS'202.250.28.0/24'
p896
aS'202.250.29.0/24'
p897
aS'202.250.30.0/24'
p898
aS'202.250.31.0/24'
p899
aS'202.252.210.0/24'
p900
aS'203.140.128.0/19'
p901
aS'203.141.160.0/19'
p902
aS'203.178.33.0/24'
p903
aS'203.181.96.0/19'
p904
aS'210.132.64.0/19'
p905
aS'210.132.96.0/19'
p906
aS'210.141.64.0/19'
p907
aS'210.141.96.0/19'
p908
aS'210.141.224.0/19'
p909
aS'210.142.0.0/18'
p910
aS'210.143.32.0/19'
p911
aS'210.143.192.0/20'
p912
aS'210.155.0.0/17'
p913
aS'210.157.128.0/19'
p914
aS'210.158.0.0/19'
p915
aS'210.159.0.0/19'
p916
aS'210.166.128.0/18'
p917
aS'210.167.128.0/18'
p918
aS'210.167.192.0/18'
p919
aS'210.168.128.0/18'
p920
aS'210.168.192.0/18'
p921
aS'210.169.0.0/17'
p922
aS'210.171.192.0/20'
p923
aS'210.172.64.0/18'
p924
aS'210.173.64.0/19'
p925
aS'210.174.64.0/18'
p926
aS'210.188.128.0/18'
p927
aS'210.189.0.0/18'
p928
aS'210.189.128.0/19'
p929
aS'210.191.0.0/18'
p930
aS'210.191.160.0/19'
p931
aS'210.196.0.0/16'
p932
aS'210.198.64.0/18'
p933
aS'210.198.128.0/17'
p934
aS'210.199.0.0/18'
p935
aS'210.199.128.0/17'
p936
aS'210.224.0.0/17'
p937
aS'210.224.128.0/19'
p938
aS'210.224.192.0/18'
p939
aS'210.228.32.0/19'
p940
aS'210.228.64.0/18'
p941
aS'210.229.128.0/19'
p942
aS'210.229.192.0/19'
p943
aS'210.230.0.0/17'
p944
aS'210.230.128.0/17'
p945
aS'210.233.0.0/18'
p946
aS'210.233.96.0/19'
p947
aS'210.234.0.0/16'
p948
aS'210.234.224.0/19'
p949
aS'210.235.64.0/18'
p950
aS'210.235.128.0/19'
p951
aS'210.235.192.0/18'
p952
aS'210.236.128.0/19'
p953
aS'210.237.64.0/18'
p954
aS'210.238.0.0/19'
p955
aS'210.238.64.0/18'
p956
aS'210.238.128.0/17'
p957
aS'210.239.96.0/19'
p958
aS'210.239.128.0/17'
p959
aS'210.249.0.0/17'
p960
aS'210.249.128.0/18'
p961
aS'210.250.0.0/18'
p962
aS'210.250.128.0/19'
p963
aS'210.251.0.0/17'
p964
aS'210.253.0.0/19'
p965
aS'210.253.128.0/18'
p966
aS'210.254.64.0/18'
p967
aS'210.255.0.0/17'
p968
aS'210.255.160.0/19'
p969
aS'210.255.192.0/19'
p970
aS'211.1.64.0/18'
p971
aS'211.4.0.0/16'
p972
aS'211.5.0.0/16'
p973
aS'211.7.0.0/18'
p974
aS'211.7.128.0/18'
p975
aS'211.9.128.0/18'
p976
aS'211.10.128.0/17'
p977
aS'211.12.0.0/17'
p978
aS'211.13.160.0/20'
p979
aS'211.15.128.0/17'
p980
aS'211.18.0.0/16'
p981
aS'211.125.160.0/19'
p982
aS'211.126.0.0/16'
p983
aS'211.134.0.0/16'
p984
aS'218.222.0.0/16'
p985
aS'218.225.0.0/17'
p986
aS'218.230.0.0/17'
p987
aS'219.108.0.0/16'
p988
aS'219.118.0.0/19'
p989
aS'219.125.0.0/16'
p990
aS'220.214.0.0/16'
p991
aS'220.217.0.0/16'
p992
aS'221.119.0.0/16'
p993
aS'222.0.0.0/16'
p994
aS'222.1.0.0/16'
p995
aS'222.2.0.0/16'
p996
aS'222.3.0.0/16'
p997
aS'222.4.0.0/16'
p998
aS'222.5.0.0/16'
p999
aS'222.6.0.0/16'
p1000
aS'222.7.0.0/16'
p1001
aS'222.8.0.0/16'
p1002
aS'222.9.0.0/16'
p1003
aS'222.10.0.0/16'
p1004
aS'222.11.0.0/16'
p1005
aS'222.12.0.0/16'
p1006
aS'222.13.0.0/16'
p1007
aS'222.14.0.0/16'
p1008
aS'222.15.0.0/16'
p1009
aS'222.225.0.0/16'
p1010
aS'222.226.0.0/16'
p1011
aS'222.227.0.0/16'
p1012
aa(lp1013
S'109.105.96.0/20'
p1014
aS'109.105.112.0/21'
p1015
aS'109.105.120.0/22'
p1016
aS'192.36.171.0/24'
p1017
aS'193.10.68.0/24'
p1018
aS'193.10.94.0/24'
p1019
aS'193.10.95.0/24'
p1020
aS'193.10.252.0/24'
p1021
aS'193.10.254.0/24'
p1022
aS'193.11.3.0/24'
p1023
aS'194.68.13.0/24'
p1024
aa(lp1025
S'64.35.192.0/20'
p1026
aS'64.50.224.0/19'
p1027
aS'64.83.160.0/19'
p1028
aS'66.173.0.0/17'
p1029
aS'66.222.0.0/17'
p1030
aS'69.11.128.0/17'
p1031
aS'69.21.0.0/16'
p1032
aS'69.128.0.0/14'
p1033
aS'75.100.0.0/16'
p1034
aS'96.60.0.0/15'
p1035
aS'134.215.192.0/18'
p1036
aS'139.135.0.0/16'
p1037
aS'184.60.0.0/15'
p1038
aS'192.149.109.0/24'
p1039
aS'192.152.138.0/24'
p1040
aS'204.194.5.0/24'
p1041
aS'204.246.0.0/20'
p1042
aS'205.137.160.0/24'
p1043
aS'207.1.0.0/19'
p1044
aS'207.49.208.0/20'
p1045
aS'208.137.64.0/19'
p1046
aS'208.165.216.0/21'
p1047
aS'208.166.192.0/20'
p1048
aS'208.171.48.0/20'
p1049
aS'216.165.128.0/18'
p1050
aS'216.170.128.0/17'
p1051
aa(lp1052
S'24.136.0.0/19'
p1053
aS'24.136.0.0/20'
p1054
aS'24.136.16.0/20'
p1055
aS'24.148.0.0/18'
p1056
aS'24.148.0.0/19'
p1057
aS'24.148.32.0/19'
p1058
aS'24.148.64.0/19'
p1059
aS'24.148.64.0/20'
p1060
aS'24.148.80.0/20'
p1061
aS'64.121.0.0/16'
p1062
aS'64.121.0.0/17'
p1063
aS'64.121.128.0/17'
p1064
aS'65.78.0.0/17'
p1065
aS'65.78.0.0/19'
p1066
aS'65.78.32.0/19'
p1067
aS'65.78.64.0/18'
p1068
aS'65.79.128.0/19'
p1069
aS'65.79.128.0/20'
p1070
aS'65.79.144.0/20'
p1071
aS'66.44.0.0/17'
p1072
aS'66.44.0.0/18'
p1073
aS'66.44.64.0/18'
p1074
aS'69.5.51.0/24'
p1075
aS'146.115.0.0/16'
p1076
aS'146.115.0.0/17'
p1077
aS'146.115.128.0/18'
p1078
aS'146.115.208.0/20'
p1079
aS'146.115.224.0/19'
p1080
aS'192.160.125.0/24'
p1081
aS'198.183.8.0/21'
p1082
aS'199.184.165.0/24'
p1083
aS'199.188.219.0/24'
p1084
aS'199.190.178.0/23'
p1085
aS'199.190.180.0/24'
p1086
aS'204.52.238.0/24'
p1087
aS'204.74.0.0/21'
p1088
aS'204.74.8.0/23'
p1089
aS'205.178.0.0/17'
p1090
aS'205.178.0.0/18'
p1091
aS'205.178.64.0/18'
p1092
aS'206.71.224.0/19'
p1093
aS'206.71.224.0/20'
p1094
aS'206.71.240.0/20'
p1095
aS'207.38.128.0/17'
p1096
aS'207.38.128.0/18'
p1097
aS'207.38.192.0/18'
p1098
aS'207.96.0.0/17'
p1099
aS'207.172.0.0/16'
p1100
aS'207.172.32.0/20'
p1101
aS'207.172.48.0/20'
p1102
aS'207.172.64.0/20'
p1103
aS'207.172.80.0/20'
p1104
aS'207.172.112.0/20'
p1105
aS'207.172.128.0/20'
p1106
aS'207.172.144.0/20'
p1107
aS'207.172.160.0/20'
p1108
aS'207.172.176.0/20'
p1109
aS'207.172.192.0/20'
p1110
aS'207.172.208.0/20'
p1111
aS'207.172.224.0/19'
p1112
aS'207.180.128.0/18'
p1113
aS'207.180.128.0/19'
p1114
aS'207.180.144.0/20'
p1115
aS'207.180.160.0/19'
p1116
aS'207.180.176.0/20'
p1117
aS'207.181.192.0/18'
p1118
aS'207.181.192.0/19'
p1119
aS'207.181.224.0/19'
p1120
aS'207.229.128.0/18'
p1121
aS'207.229.128.0/19'
p1122
aS'207.229.160.0/19'
p1123
aS'207.237.0.0/16'
p1124
aS'207.237.0.0/17'
p1125
aS'207.237.128.0/17'
p1126
aS'208.58.0.0/15'
p1127
aS'208.58.0.0/20'
p1128
aS'208.58.16.0/20'
p1129
aS'208.58.32.0/19'
p1130
aS'208.58.64.0/19'
p1131
aS'208.58.96.0/20'
p1132
aS'208.58.112.0/20'
p1133
aS'208.58.192.0/19'
p1134
aS'208.58.208.0/20'
p1135
aS'208.58.224.0/20'
p1136
aS'208.58.240.0/20'
p1137
aS'208.59.64.0/20'
p1138
aS'208.59.112.0/20'
p1139
aS'208.59.128.0/19'
p1140
aS'208.59.160.0/20'
p1141
aS'209.6.0.0/16'
p1142
aS'209.6.0.0/17'
p1143
aS'209.6.128.0/17'
p1144
aS'209.6.208.0/20'
p1145
aS'209.94.128.0/19'
p1146
aS'209.94.128.0/20'
p1147
aS'209.122.0.0/16'
p1148
aS'209.122.0.0/20'
p1149
aS'209.122.112.0/20'
p1150
aS'209.122.128.0/20'
p1151
aS'209.122.192.0/20'
p1152
aS'209.150.32.0/19'
p1153
aS'209.150.32.0/20'
p1154
aS'209.150.48.0/20'
p1155
aS'216.15.0.0/17'
p1156
aS'216.15.0.0/18'
p1157
aS'216.15.64.0/19'
p1158
aS'216.15.96.0/20'
p1159
aS'216.15.112.0/20'
p1160
aS'216.80.0.0/17'
p1161
aS'216.80.0.0/18'
p1162
aS'216.80.64.0/18'
p1163
aS'216.164.0.0/16'
p1164
aS'216.164.0.0/19'
p1165
aS'216.164.32.0/19'
p1166
aS'216.164.112.0/20'
p1167
aS'216.164.128.0/20'
p1168
aS'216.164.144.0/20'
p1169
aS'216.164.160.0/19'
p1170
aS'216.164.192.0/20'
p1171
aS'216.164.208.0/20'
p1172
aS'216.164.224.0/20'
p1173
aS'216.220.64.0/20'
p1174
aa(lp1175
S'64.5.192.0/18'
p1176
aS'64.6.192.0/20'
p1177
aS'64.42.192.0/18'
p1178
aS'64.42.192.0/21'
p1179
aS'64.42.200.0/23'
p1180
aS'64.42.208.0/21'
p1181
aS'64.42.224.0/19'
p1182
aS'64.42.232.0/21'
p1183
aS'64.42.232.0/24'
p1184
aS'64.42.240.0/21'
p1185
aS'64.42.248.0/21'
p1186
aS'64.187.0.0/18'
p1187
aS'64.187.24.0/24'
p1188
aS'64.187.52.0/24'
p1189
aS'65.255.224.0/20'
p1190
aS'65.255.235.0/24'
p1191
aS'65.255.237.0/24'
p1192
aS'66.38.128.0/17'
p1193
aS'66.38.128.0/21'
p1194
aS'66.38.136.0/21'
p1195
aS'66.38.144.0/20'
p1196
aS'66.38.144.0/21'
p1197
aS'66.38.152.0/22'
p1198
aS'66.38.156.0/22'
p1199
aS'66.38.160.0/20'
p1200
aS'66.38.176.0/20'
p1201
aS'66.38.192.0/20'
p1202
aS'66.38.202.0/24'
p1203
aS'66.38.208.0/20'
p1204
aS'66.59.128.0/18'
p1205
aS'66.59.190.0/23'
p1206
aS'66.201.192.0/18'
p1207
aS'66.201.192.0/19'
p1208
aS'66.201.192.0/21'
p1209
aS'66.201.200.0/21'
p1210
aS'66.201.208.0/21'
p1211
aS'66.201.216.0/21'
p1212
aS'66.201.224.0/21'
p1213
aS'66.201.232.0/21'
p1214
aS'66.201.240.0/21'
p1215
aS'66.201.248.0/21'
p1216
aS'72.28.64.0/19'
p1217
aS'139.142.0.0/16'
p1218
aS'139.142.0.0/18'
p1219
aS'139.142.20.0/22'
p1220
aS'139.142.50.0/23'
p1221
aS'139.142.64.0/18'
p1222
aS'139.142.64.0/20'
p1223
aS'139.142.68.0/22'
p1224
aS'139.142.80.0/20'
p1225
aS'139.142.96.0/19'
p1226
aS'139.142.128.0/19'
p1227
aS'139.142.151.0/24'
p1228
aS'139.142.160.0/20'
p1229
aS'139.142.163.0/24'
p1230
aS'139.142.176.0/22'
p1231
aS'139.142.178.0/24'
p1232
aS'139.142.180.0/22'
p1233
aS'139.142.184.0/21'
p1234
aS'139.142.192.0/22'
p1235
aS'139.142.196.0/23'
p1236
aS'139.142.200.0/22'
p1237
aS'139.142.204.0/22'
p1238
aS'139.142.208.0/20'
p1239
aS'139.142.208.0/22'
p1240
aS'139.142.224.0/22'
p1241
aS'139.142.228.0/22'
p1242
aS'139.142.232.0/22'
p1243
aS'139.142.236.0/22'
p1244
aS'139.142.240.0/20'
p1245
aS'142.200.0.0/16'
p1246
aS'192.139.125.0/24'
p1247
aS'192.197.110.0/24'
p1248
aS'192.219.215.0/24'
p1249
aS'198.161.93.0/24'
p1250
aS'198.161.94.0/24'
p1251
aS'198.161.248.0/24'
p1252
aS'198.162.9.0/24'
p1253
aS'198.165.0.0/16'
p1254
aS'199.175.138.0/23'
p1255
aS'199.175.225.0/24'
p1256
aS'199.185.30.0/23'
p1257
aS'199.185.98.0/24'
p1258
aS'199.185.111.0/24'
p1259
aS'199.185.112.0/23'
p1260
aS'199.185.238.0/24'
p1261
aS'199.216.81.0/24'
p1262
aS'204.209.128.0/24'
p1263
aS'204.209.166.0/24'
p1264
aS'204.239.2.0/24'
p1265
aS'204.239.24.0/24'
p1266
aS'204.239.178.0/24'
p1267
aS'206.12.49.0/24'
p1268
aS'206.12.153.0/24'
p1269
aS'206.75.5.0/24'
p1270
aS'206.108.10.0/23'
p1271
aS'206.221.240.0/20'
p1272
aS'207.107.212.0/24'
p1273
aS'207.153.50.0/23'
p1274
aS'209.17.128.0/18'
p1275
aS'209.17.150.0/23'
p1276
aS'209.17.170.0/23'
p1277
aS'209.17.186.0/24'
p1278
aS'209.17.190.0/23'
p1279
aS'209.50.64.0/19'
p1280
aS'209.71.192.0/19'
p1281
aS'209.71.208.0/21'
p1282
aS'209.71.224.0/19'
p1283
aS'209.135.64.0/18'
p1284
aS'209.139.192.0/19'
p1285
aS'209.139.208.0/23'
p1286
aS'209.139.224.0/19'
p1287
aS'209.139.252.0/23'
p1288
aS'216.6.192.0/20'
p1289
aS'216.18.0.0/17'
p1290
aS'216.18.0.0/19'
p1291
aS'216.18.20.0/22'
p1292
aS'216.18.32.0/20'
p1293
aS'216.18.32.0/21'
p1294
aS'216.18.40.0/21'
p1295
aS'216.18.48.0/20'
p1296
aS'216.18.64.0/21'
p1297
aS'216.18.72.0/22'
p1298
aS'216.18.76.0/22'
p1299
aS'216.18.80.0/21'
p1300
aS'216.18.88.0/21'
p1301
aS'216.18.92.0/23'
p1302
aS'216.18.94.0/23'
p1303
aS'216.18.96.0/22'
p1304
aS'216.18.96.0/24'
p1305
aS'216.18.100.0/23'
p1306
aS'216.18.104.0/21'
p1307
aS'216.18.112.0/20'
p1308
aS'216.18.114.0/23'
p1309
aS'216.183.0.0/19'
p1310
aa(lp1311
S'213.192.184.0/21'
p1312
aa(lp1313
S'5.152.179.0/24'
p1314
aS'23.92.24.0/22'
p1315
aS'23.239.0.0/21'
p1316
aS'27.50.32.0/21'
p1317
aS'37.16.72.0/21'
p1318
aS'50.116.0.0/20'
p1319
aS'57.234.221.0/24'
p1320
aS'64.62.128.0/17'
p1321
aS'64.62.128.0/18'
p1322
aS'64.62.224.0/24'
p1323
aS'64.71.128.0/18'
p1324
aS'64.72.161.0/24'
p1325
aS'64.89.16.0/20'
p1326
aS'65.19.128.0/18'
p1327
aS'65.19.153.0/24'
p1328
aS'65.49.0.0/17'
p1329
aS'65.49.2.0/24'
p1330
aS'65.49.13.0/24'
p1331
aS'65.49.14.0/24'
p1332
aS'65.49.68.0/24'
p1333
aS'65.49.88.0/24'
p1334
aS'66.117.6.0/24'
p1335
aS'66.160.128.0/18'
p1336
aS'66.160.192.0/20'
p1337
aS'66.175.216.0/21'
p1338
aS'66.178.176.0/20'
p1339
aS'66.220.0.0/19'
p1340
aS'67.43.55.0/24'
p1341
aS'70.35.16.0/21'
p1342
aS'72.52.64.0/18'
p1343
aS'72.52.71.0/24'
p1344
aS'72.52.92.0/24'
p1345
aS'74.82.0.0/18'
p1346
aS'74.82.42.0/24'
p1347
aS'74.82.46.0/24'
p1348
aS'74.82.63.0/24'
p1349
aS'74.121.104.0/22'
p1350
aS'74.124.199.0/24'
p1351
aS'74.207.240.0/20'
p1352
aS'96.126.96.0/21'
p1353
aS'107.178.32.0/22'
p1354
aS'107.178.36.0/22'
p1355
aS'107.178.40.0/22'
p1356
aS'107.178.44.0/22'
p1357
aS'135.0.160.0/19'
p1358
aS'135.0.224.0/19'
p1359
aS'148.51.0.0/16'
p1360
aS'162.208.128.0/18'
p1361
aS'162.208.192.0/19'
p1362
aS'162.208.224.0/20'
p1363
aS'162.208.240.0/20'
p1364
aS'162.213.0.0/22'
p1365
aS'162.218.24.0/24'
p1366
aS'162.218.25.0/24'
p1367
aS'162.218.26.0/24'
p1368
aS'162.218.27.0/24'
p1369
aS'173.46.80.0/20'
p1370
aS'173.230.144.0/20'
p1371
aS'173.255.208.0/20'
p1372
aS'173.255.240.0/20'
p1373
aS'184.75.240.0/21'
p1374
aS'184.104.0.0/15'
p1375
aS'184.104.0.0/17'
p1376
aS'184.105.16.0/20'
p1377
aS'184.105.64.0/24'
p1378
aS'184.105.145.0/24'
p1379
aS'184.105.168.0/24'
p1380
aS'184.105.176.0/24'
p1381
aS'184.105.181.0/24'
p1382
aS'184.105.195.0/24'
p1383
aS'184.105.207.0/24'
p1384
aS'184.105.216.0/24'
p1385
aS'184.105.248.0/21'
p1386
aS'184.105.250.12/30'
p1387
aS'192.52.69.0/24'
p1388
aS'192.69.236.0/22'
p1389
aS'192.81.128.0/22'
p1390
aS'192.81.132.0/22'
p1391
aS'192.81.248.0/22'
p1392
aS'192.81.248.0/24'
p1393
aS'192.81.249.0/24'
p1394
aS'192.81.250.0/24'
p1395
aS'192.81.251.0/24'
p1396
aS'192.88.99.0/24'
p1397
aS'192.126.120.0/22'
p1398
aS'192.132.94.0/24'
p1399
aS'192.136.112.0/24'
p1400
aS'192.155.80.0/21'
p1401
aS'192.156.200.0/24'
p1402
aS'192.161.80.0/20'
p1403
aS'193.142.62.0/24'
p1404
aS'198.44.248.0/22'
p1405
aS'198.74.48.0/22'
p1406
aS'198.102.73.0/24'
p1407
aS'199.4.150.0/24'
p1408
aS'199.36.72.0/21'
p1409
aS'199.88.158.0/24'
p1410
aS'199.114.240.0/21'
p1411
aS'199.115.178.0/24'
p1412
aS'199.192.152.0/21'
p1413
aS'199.193.64.0/21'
p1414
aS'199.233.90.0/24'
p1415
aS'199.233.198.0/23'
p1416
aS'199.245.105.0/24'
p1417
aS'202.9.83.0/24'
p1418
aS'203.12.6.0/24'
p1419
aS'203.23.194.0/24'
p1420
aS'203.99.142.0/24'
p1421
aS'203.142.14.0/23'
p1422
aS'203.142.26.0/24'
p1423
aS'204.13.228.0/22'
p1424
aS'204.187.91.0/24'
p1425
aS'204.238.49.0/24'
p1426
aS'205.159.239.0/24'
p1427
aS'205.166.121.0/24'
p1428
aS'206.108.49.0/24'
p1429
aS'206.108.51.0/24'
p1430
aS'206.108.55.0/24'
p1431
aS'206.144.144.0/20'
p1432
aS'207.89.0.0/17'
p1433
aS'208.12.64.0/19'
p1434
aS'208.75.96.0/21'
p1435
aS'209.51.160.0/19'
p1436
aS'209.150.160.0/19'
p1437
aS'216.66.0.0/19'
p1438
aS'216.66.32.0/19'
p1439
aS'216.66.64.0/19'
p1440
aS'216.66.70.16/30'
p1441
aS'216.66.72.0/21'
p1442
aS'216.66.80.0/20'
p1443
aS'216.171.124.0/24'
p1444
aS'216.171.201.0/24'
p1445
aS'216.171.202.0/24'
p1446
aS'216.171.204.0/24'
p1447
aS'216.171.205.0/24'
p1448
aS'216.171.206.0/24'
p1449
aS'216.171.208.0/24'
p1450
aS'216.171.218.0/24'
p1451
aS'216.171.220.0/24'
p1452
aS'216.171.221.0/24'
p1453
aS'216.218.128.0/17'
p1454
aS'216.218.221.0/24'
p1455
aS'216.224.64.0/19'
p1456
aS'216.224.64.0/21'
p1457
aS'216.229.96.0/20'
p1458
aa(lp1459
S'177.176.0.0/14'
p1460
aS'177.176.0.0/19'
p1461
aS'177.176.32.0/19'
p1462
aS'177.176.64.0/19'
p1463
aS'177.176.96.0/19'
p1464
aS'177.176.128.0/19'
p1465
aS'177.176.160.0/19'
p1466
aS'177.176.192.0/19'
p1467
aS'177.176.224.0/19'
p1468
aS'177.177.0.0/19'
p1469
aS'177.177.32.0/19'
p1470
aS'177.177.64.0/19'
p1471
aS'177.177.96.0/19'
p1472
aS'177.177.128.0/19'
p1473
aS'177.177.160.0/19'
p1474
aS'177.177.192.0/19'
p1475
aS'177.177.224.0/19'
p1476
aS'177.178.0.0/19'
p1477
aS'177.178.32.0/19'
p1478
aS'177.178.64.0/19'
p1479
aS'177.178.96.0/19'
p1480
aS'177.178.128.0/19'
p1481
aS'177.178.160.0/19'
p1482
aS'177.178.192.0/19'
p1483
aS'177.178.224.0/19'
p1484
aS'177.179.0.0/19'
p1485
aS'177.179.32.0/19'
p1486
aS'177.179.64.0/19'
p1487
aS'177.179.96.0/19'
p1488
aS'177.179.128.0/19'
p1489
aS'177.179.160.0/19'
p1490
aS'177.179.192.0/19'
p1491
aS'177.179.224.0/19'
p1492
aS'177.208.0.0/14'
p1493
aS'177.208.0.0/19'
p1494
aS'177.208.32.0/19'
p1495
aS'177.208.64.0/19'
p1496
aS'177.208.96.0/19'
p1497
aS'177.208.128.0/19'
p1498
aS'177.208.160.0/19'
p1499
aS'177.208.192.0/19'
p1500
aS'177.208.224.0/19'
p1501
aS'177.209.0.0/19'
p1502
aS'177.209.32.0/19'
p1503
aS'177.209.64.0/19'
p1504
aS'177.209.96.0/19'
p1505
aS'177.209.128.0/19'
p1506
aS'177.209.160.0/19'
p1507
aS'177.209.192.0/19'
p1508
aS'177.209.224.0/19'
p1509
aS'177.210.0.0/19'
p1510
aS'177.210.32.0/19'
p1511
aS'177.210.64.0/19'
p1512
aS'177.210.96.0/19'
p1513
aS'177.210.128.0/19'
p1514
aS'177.210.160.0/19'
p1515
aS'177.210.192.0/19'
p1516
aS'177.210.224.0/19'
p1517
aS'177.211.0.0/19'
p1518
aS'177.211.32.0/19'
p1519
aS'177.211.64.0/19'
p1520
aS'177.211.96.0/19'
p1521
aS'177.211.128.0/19'
p1522
aS'177.211.160.0/19'
p1523
aS'177.211.192.0/19'
p1524
aS'177.211.224.0/19'
p1525
aS'179.64.0.0/14'
p1526
aS'179.64.0.0/19'
p1527
aS'179.64.32.0/19'
p1528
aS'179.64.64.0/19'
p1529
aS'179.64.96.0/19'
p1530
aS'179.64.128.0/19'
p1531
aS'179.64.160.0/19'
p1532
aS'179.64.192.0/19'
p1533
aS'179.64.224.0/19'
p1534
aS'179.65.0.0/19'
p1535
aS'179.65.32.0/19'
p1536
aS'179.65.64.0/19'
p1537
aS'179.65.96.0/19'
p1538
aS'179.65.128.0/19'
p1539
aS'179.65.160.0/19'
p1540
aS'179.65.192.0/19'
p1541
aS'179.65.224.0/19'
p1542
aS'179.66.0.0/19'
p1543
aS'179.66.32.0/19'
p1544
aS'179.66.64.0/19'
p1545
aS'179.66.96.0/19'
p1546
aS'179.66.128.0/19'
p1547
aS'179.66.160.0/19'
p1548
aS'179.66.192.0/19'
p1549
aS'179.66.224.0/19'
p1550
aS'179.67.0.0/19'
p1551
aS'179.67.32.0/19'
p1552
aS'179.67.64.0/19'
p1553
aS'179.67.96.0/19'
p1554
aS'179.67.128.0/19'
p1555
aS'179.67.160.0/19'
p1556
aS'179.67.192.0/19'
p1557
aS'179.67.224.0/19'
p1558
aS'179.68.0.0/14'
p1559
aS'179.68.0.0/19'
p1560
aS'179.68.32.0/19'
p1561
aS'179.68.64.0/19'
p1562
aS'179.68.96.0/19'
p1563
aS'179.68.128.0/19'
p1564
aS'179.68.160.0/19'
p1565
aS'179.68.192.0/19'
p1566
aS'179.68.224.0/19'
p1567
aS'179.69.0.0/19'
p1568
aS'179.69.32.0/19'
p1569
aS'179.69.64.0/19'
p1570
aS'179.69.96.0/19'
p1571
aS'179.69.128.0/19'
p1572
aS'179.69.160.0/19'
p1573
aS'179.69.192.0/19'
p1574
aS'179.69.224.0/19'
p1575
aS'179.70.0.0/19'
p1576
aS'179.70.32.0/19'
p1577
aS'179.70.64.0/19'
p1578
aS'179.70.96.0/19'
p1579
aS'179.70.128.0/19'
p1580
aS'179.70.160.0/19'
p1581
aS'179.70.192.0/19'
p1582
aS'179.70.224.0/19'
p1583
aS'179.71.0.0/19'
p1584
aS'179.71.32.0/19'
p1585
aS'179.71.64.0/19'
p1586
aS'179.71.96.0/19'
p1587
aS'179.71.128.0/19'
p1588
aS'179.71.160.0/19'
p1589
aS'179.71.192.0/19'
p1590
aS'179.71.224.0/19'
p1591
aS'179.192.0.0/14'
p1592
aS'179.192.0.0/16'
p1593
aS'179.192.0.0/19'
p1594
aS'179.192.32.0/19'
p1595
aS'179.192.64.0/19'
p1596
aS'179.192.96.0/19'
p1597
aS'179.192.128.0/19'
p1598
aS'179.192.160.0/19'
p1599
aS'179.192.192.0/19'
p1600
aS'179.192.224.0/19'
p1601
aS'179.193.0.0/16'
p1602
aS'179.193.0.0/19'
p1603
aS'179.193.32.0/19'
p1604
aS'179.193.64.0/19'
p1605
aS'179.193.96.0/19'
p1606
aS'179.193.128.0/19'
p1607
aS'179.193.160.0/19'
p1608
aS'179.193.192.0/19'
p1609
aS'179.193.224.0/19'
p1610
aS'179.194.0.0/16'
p1611
aS'179.194.0.0/19'
p1612
aS'179.194.32.0/19'
p1613
aS'179.194.64.0/19'
p1614
aS'179.194.96.0/19'
p1615
aS'179.194.128.0/19'
p1616
aS'179.194.160.0/19'
p1617
aS'179.194.192.0/19'
p1618
aS'179.194.224.0/19'
p1619
aS'179.195.0.0/16'
p1620
aS'179.195.0.0/19'
p1621
aS'179.195.32.0/19'
p1622
aS'179.195.64.0/19'
p1623
aS'179.195.96.0/19'
p1624
aS'179.195.128.0/19'
p1625
aS'179.195.160.0/19'
p1626
aS'179.195.192.0/19'
p1627
aS'179.195.224.0/19'
p1628
aS'179.196.0.0/16'
p1629
aS'179.196.0.0/19'
p1630
aS'179.196.32.0/19'
p1631
aS'179.196.64.0/19'
p1632
aS'179.196.96.0/19'
p1633
aS'179.196.128.0/19'
p1634
aS'179.196.160.0/19'
p1635
aS'179.196.192.0/19'
p1636
aS'179.196.224.0/19'
p1637
aS'179.197.0.0/16'
p1638
aS'179.197.0.0/18'
p1639
aS'179.197.0.0/19'
p1640
aS'179.197.32.0/19'
p1641
aS'179.197.64.0/18'
p1642
aS'179.197.64.0/19'
p1643
aS'179.197.96.0/19'
p1644
aS'179.197.128.0/18'
p1645
aS'179.197.128.0/19'
p1646
aS'179.197.160.0/19'
p1647
aS'179.197.192.0/18'
p1648
aS'179.197.192.0/19'
p1649
aS'179.197.224.0/19'
p1650
aS'179.198.0.0/16'
p1651
aS'179.198.0.0/18'
p1652
aS'179.198.0.0/19'
p1653
aS'179.198.32.0/19'
p1654
aS'179.198.64.0/18'
p1655
aS'179.198.64.0/19'
p1656
aS'179.198.96.0/19'
p1657
aS'179.198.128.0/18'
p1658
aS'179.198.128.0/19'
p1659
aS'179.198.160.0/19'
p1660
aS'179.198.192.0/18'
p1661
aS'179.198.192.0/19'
p1662
aS'179.198.224.0/19'
p1663
aS'179.199.0.0/16'
p1664
aS'179.199.0.0/18'
p1665
aS'179.199.0.0/19'
p1666
aS'179.199.32.0/19'
p1667
aS'179.199.64.0/18'
p1668
aS'179.199.64.0/19'
p1669
aS'179.199.96.0/19'
p1670
aS'179.199.128.0/18'
p1671
aS'179.199.128.0/19'
p1672
aS'179.199.160.0/19'
p1673
aS'179.199.192.0/18'
p1674
aS'179.199.192.0/19'
p1675
aS'179.199.224.0/19'
p1676
aS'179.236.0.0/14'
p1677
aS'179.236.0.0/19'
p1678
aS'179.236.32.0/19'
p1679
aS'179.236.64.0/19'
p1680
aS'179.236.96.0/19'
p1681
aS'179.236.128.0/19'
p1682
aS'179.236.160.0/19'
p1683
aS'179.236.192.0/19'
p1684
aS'179.236.224.0/19'
p1685
aS'186.240.0.0/14'
p1686
aS'186.240.0.0/16'
p1687
aS'186.240.0.0/19'
p1688
aS'186.240.32.0/19'
p1689
aS'186.240.64.0/19'
p1690
aS'186.240.96.0/19'
p1691
aS'186.240.128.0/19'
p1692
aS'186.240.160.0/19'
p1693
aS'186.240.192.0/19'
p1694
aS'186.240.224.0/19'
p1695
aS'186.241.0.0/16'
p1696
aS'186.241.0.0/19'
p1697
aS'186.241.32.0/19'
p1698
aS'186.241.64.0/19'
p1699
aS'186.241.96.0/19'
p1700
aS'186.241.128.0/19'
p1701
aS'186.241.160.0/19'
p1702
aS'186.241.192.0/19'
p1703
aS'186.241.224.0/19'
p1704
aS'186.242.0.0/16'
p1705
aS'186.242.0.0/19'
p1706
aS'186.242.32.0/19'
p1707
aS'186.242.64.0/19'
p1708
aS'186.242.96.0/19'
p1709
aS'186.242.128.0/19'
p1710
aS'186.242.160.0/19'
p1711
aS'186.242.192.0/19'
p1712
aS'186.242.224.0/19'
p1713
aS'186.243.0.0/16'
p1714
aS'186.243.64.0/19'
p1715
aS'186.243.96.0/19'
p1716
aS'186.243.128.0/19'
p1717
aS'186.243.160.0/19'
p1718
aS'186.243.192.0/19'
p1719
aS'186.243.224.0/19'
p1720
aS'186.244.0.0/14'
p1721
aS'186.244.0.0/16'
p1722
aS'186.244.0.0/19'
p1723
aS'186.244.32.0/19'
p1724
aS'186.244.64.0/19'
p1725
aS'186.244.96.0/19'
p1726
aS'186.244.128.0/19'
p1727
aS'186.244.160.0/19'
p1728
aS'186.244.192.0/19'
p1729
aS'186.244.224.0/19'
p1730
aS'186.245.0.0/16'
p1731
aS'186.245.0.0/19'
p1732
aS'186.245.32.0/19'
p1733
aS'186.245.64.0/19'
p1734
aS'186.245.96.0/19'
p1735
aS'186.245.128.0/19'
p1736
aS'186.245.160.0/19'
p1737
aS'186.245.192.0/19'
p1738
aS'186.245.224.0/19'
p1739
aS'186.246.0.0/16'
p1740
aS'186.246.0.0/19'
p1741
aS'186.246.32.0/19'
p1742
aS'186.246.64.0/19'
p1743
aS'186.246.96.0/19'
p1744
aS'186.246.128.0/19'
p1745
aS'186.246.160.0/19'
p1746
aS'186.246.192.0/19'
p1747
aS'186.246.224.0/19'
p1748
aS'186.247.0.0/16'
p1749
aS'186.247.0.0/19'
p1750
aS'186.247.32.0/19'
p1751
aS'186.247.64.0/19'
p1752
aS'186.247.96.0/19'
p1753
aS'186.247.128.0/19'
p1754
aS'186.247.160.0/19'
p1755
aS'186.247.192.0/19'
p1756
aS'186.247.224.0/19'
p1757
aS'187.12.0.0/14'
p1758
aS'187.12.0.0/16'
p1759
aS'187.12.0.0/19'
p1760
aS'187.12.32.0/19'
p1761
aS'187.12.64.0/19'
p1762
aS'187.12.96.0/19'
p1763
aS'187.12.128.0/19'
p1764
aS'187.12.160.0/19'
p1765
aS'187.12.192.0/19'
p1766
aS'187.12.224.0/19'
p1767
aS'187.13.0.0/16'
p1768
aS'187.13.0.0/19'
p1769
aS'187.13.32.0/19'
p1770
aS'187.13.64.0/19'
p1771
aS'187.13.96.0/19'
p1772
aS'187.13.128.0/19'
p1773
aS'187.13.160.0/19'
p1774
aS'187.13.192.0/19'
p1775
aS'187.13.224.0/19'
p1776
aS'187.14.0.0/16'
p1777
aS'187.14.0.0/19'
p1778
aS'187.14.32.0/19'
p1779
aS'187.14.64.0/19'
p1780
aS'187.14.96.0/19'
p1781
aS'187.14.128.0/19'
p1782
aS'187.14.160.0/19'
p1783
aS'187.14.192.0/19'
p1784
aS'187.14.224.0/19'
p1785
aS'187.15.0.0/16'
p1786
aS'187.15.0.0/19'
p1787
aS'187.15.32.0/19'
p1788
aS'187.15.64.0/19'
p1789
aS'187.15.96.0/19'
p1790
aS'187.15.128.0/19'
p1791
aS'187.15.160.0/19'
p1792
aS'187.15.192.0/19'
p1793
aS'187.15.224.0/19'
p1794
aS'187.40.0.0/14'
p1795
aS'187.40.0.0/16'
p1796
aS'187.40.0.0/19'
p1797
aS'187.40.32.0/19'
p1798
aS'187.40.64.0/19'
p1799
aS'187.40.96.0/19'
p1800
aS'187.40.128.0/19'
p1801
aS'187.40.160.0/19'
p1802
aS'187.40.192.0/19'
p1803
aS'187.40.224.0/19'
p1804
aS'187.41.0.0/16'
p1805
aS'187.41.0.0/19'
p1806
aS'187.41.32.0/19'
p1807
aS'187.41.64.0/19'
p1808
aS'187.41.96.0/19'
p1809
aS'187.41.128.0/19'
p1810
aS'187.41.160.0/19'
p1811
aS'187.41.192.0/19'
p1812
aS'187.41.224.0/19'
p1813
aS'187.42.0.0/16'
p1814
aS'187.42.0.0/19'
p1815
aS'187.42.32.0/19'
p1816
aS'187.42.64.0/19'
p1817
aS'187.42.96.0/19'
p1818
aS'187.42.128.0/19'
p1819
aS'187.42.160.0/19'
p1820
aS'187.42.192.0/19'
p1821
aS'187.42.224.0/19'
p1822
aS'187.43.0.0/16'
p1823
aS'187.43.0.0/19'
p1824
aS'187.43.32.0/19'
p1825
aS'187.43.64.0/19'
p1826
aS'187.43.96.0/19'
p1827
aS'187.43.128.0/19'
p1828
aS'187.43.160.0/19'
p1829
aS'187.43.192.0/19'
p1830
aS'187.43.224.0/19'
p1831
aS'187.76.0.0/14'
p1832
aS'187.76.0.0/16'
p1833
aS'187.76.0.0/19'
p1834
aS'187.76.32.0/19'
p1835
aS'187.76.64.0/19'
p1836
aS'187.76.96.0/19'
p1837
aS'187.76.128.0/19'
p1838
aS'187.76.160.0/19'
p1839
aS'187.76.192.0/19'
p1840
aS'187.76.224.0/19'
p1841
aS'187.77.0.0/16'
p1842
aS'187.77.0.0/19'
p1843
aS'187.77.32.0/19'
p1844
aS'187.77.64.0/19'
p1845
aS'187.77.96.0/19'
p1846
aS'187.77.128.0/19'
p1847
aS'187.77.160.0/19'
p1848
aS'187.77.192.0/19'
p1849
aS'187.77.224.0/19'
p1850
aS'187.78.0.0/16'
p1851
aS'187.78.0.0/19'
p1852
aS'187.78.32.0/19'
p1853
aS'187.78.64.0/19'
p1854
aS'187.78.96.0/19'
p1855
aS'187.78.128.0/19'
p1856
aS'187.78.160.0/19'
p1857
aS'187.78.192.0/19'
p1858
aS'187.78.224.0/19'
p1859
aS'187.79.0.0/16'
p1860
aS'187.79.0.0/19'
p1861
aS'187.79.32.0/19'
p1862
aS'187.79.64.0/19'
p1863
aS'187.79.96.0/19'
p1864
aS'187.79.128.0/19'
p1865
aS'187.79.160.0/19'
p1866
aS'187.79.192.0/19'
p1867
aS'187.79.224.0/19'
p1868
aS'187.124.0.0/14'
p1869
aS'187.124.0.0/16'
p1870
aS'187.124.0.0/19'
p1871
aS'187.124.32.0/19'
p1872
aS'187.124.64.0/19'
p1873
aS'187.124.96.0/19'
p1874
aS'187.124.128.0/19'
p1875
aS'187.124.160.0/19'
p1876
aS'187.124.192.0/19'
p1877
aS'187.124.224.0/19'
p1878
aS'187.125.0.0/16'
p1879
aS'187.125.0.0/19'
p1880
aS'187.125.32.0/19'
p1881
aS'187.125.64.0/19'
p1882
aS'187.125.96.0/19'
p1883
aS'187.125.128.0/19'
p1884
aS'187.125.160.0/19'
p1885
aS'187.125.192.0/19'
p1886
aS'187.125.224.0/19'
p1887
aS'187.126.0.0/16'
p1888
aS'187.126.0.0/19'
p1889
aS'187.126.32.0/19'
p1890
aS'187.126.64.0/19'
p1891
aS'187.126.96.0/19'
p1892
aS'187.126.128.0/19'
p1893
aS'187.126.160.0/19'
p1894
aS'187.126.192.0/19'
p1895
aS'187.126.224.0/19'
p1896
aS'187.127.0.0/16'
p1897
aS'187.127.0.0/19'
p1898
aS'187.127.32.0/19'
p1899
aS'187.127.64.0/19'
p1900
aS'187.127.96.0/19'
p1901
aS'187.127.128.0/19'
p1902
aS'187.127.160.0/19'
p1903
aS'187.127.192.0/19'
p1904
aS'187.127.224.0/19'
p1905
aS'189.12.0.0/16'
p1906
aS'189.12.0.0/17'
p1907
aS'189.12.128.0/17'
p1908
aS'189.13.0.0/16'
p1909
aS'189.13.0.0/17'
p1910
aS'189.13.128.0/17'
p1911
aS'189.24.0.0/16'
p1912
aS'189.24.0.0/18'
p1913
aS'189.24.0.0/19'
p1914
aS'189.24.32.0/19'
p1915
aS'189.24.64.0/18'
p1916
aS'189.24.64.0/19'
p1917
aS'189.24.96.0/19'
p1918
aS'189.24.128.0/18'
p1919
aS'189.24.128.0/19'
p1920
aS'189.24.160.0/19'
p1921
aS'189.24.192.0/18'
p1922
aS'189.24.192.0/19'
p1923
aS'189.24.224.0/19'
p1924
aS'189.25.0.0/16'
p1925
aS'189.25.0.0/18'
p1926
aS'189.25.0.0/19'
p1927
aS'189.25.32.0/19'
p1928
aS'189.25.64.0/18'
p1929
aS'189.25.64.0/19'
p1930
aS'189.25.96.0/19'
p1931
aS'189.25.128.0/18'
p1932
aS'189.25.128.0/19'
p1933
aS'189.25.160.0/19'
p1934
aS'189.25.192.0/18'
p1935
aS'189.25.192.0/19'
p1936
aS'189.25.224.0/19'
p1937
aS'189.39.191.0/24'
p1938
aS'189.48.0.0/16'
p1939
aS'189.48.0.0/18'
p1940
aS'189.48.0.0/19'
p1941
aS'189.48.32.0/19'
p1942
aS'189.48.64.0/18'
p1943
aS'189.48.64.0/19'
p1944
aS'189.48.96.0/19'
p1945
aS'189.48.128.0/18'
p1946
aS'189.48.128.0/19'
p1947
aS'189.48.160.0/19'
p1948
aS'189.48.192.0/18'
p1949
aS'189.48.192.0/19'
p1950
aS'189.48.224.0/19'
p1951
aS'189.49.0.0/16'
p1952
aS'189.49.0.0/18'
p1953
aS'189.49.0.0/19'
p1954
aS'189.49.32.0/19'
p1955
aS'189.49.64.0/18'
p1956
aS'189.49.64.0/19'
p1957
aS'189.49.96.0/19'
p1958
aS'189.49.128.0/18'
p1959
aS'189.49.128.0/19'
p1960
aS'189.49.160.0/19'
p1961
aS'189.49.192.0/18'
p1962
aS'189.49.192.0/19'
p1963
aS'189.70.0.0/15'
p1964
aS'189.70.0.0/19'
p1965
aS'189.70.32.0/19'
p1966
aS'189.70.64.0/19'
p1967
aS'189.70.96.0/19'
p1968
aS'189.70.128.0/19'
p1969
aS'189.70.160.0/19'
p1970
aS'189.70.192.0/19'
p1971
aS'189.70.224.0/19'
p1972
aS'189.71.0.0/19'
p1973
aS'189.71.32.0/19'
p1974
aS'189.71.64.0/19'
p1975
aS'189.71.96.0/19'
p1976
aS'189.71.128.0/19'
p1977
aS'189.71.160.0/19'
p1978
aS'189.71.192.0/19'
p1979
aS'189.71.224.0/19'
p1980
aS'189.80.0.0/14'
p1981
aS'189.80.0.0/16'
p1982
aS'189.80.0.0/19'
p1983
aS'189.80.32.0/19'
p1984
aS'189.80.64.0/19'
p1985
aS'189.80.96.0/19'
p1986
aS'189.80.128.0/19'
p1987
aS'189.80.160.0/19'
p1988
aS'189.80.192.0/19'
p1989
aS'189.80.224.0/19'
p1990
aS'189.81.0.0/16'
p1991
aS'189.81.0.0/19'
p1992
aS'189.81.32.0/19'
p1993
aS'189.81.64.0/19'
p1994
aS'189.81.96.0/19'
p1995
aS'189.81.128.0/19'
p1996
aS'189.81.160.0/19'
p1997
aS'189.81.192.0/19'
p1998
aS'189.81.224.0/19'
p1999
aS'189.82.0.0/16'
p2000
aS'189.82.0.0/19'
p2001
aS'189.82.32.0/19'
p2002
aS'189.82.64.0/19'
p2003
aS'189.82.96.0/19'
p2004
aS'189.82.128.0/19'
p2005
aS'189.82.160.0/19'
p2006
aS'189.82.192.0/19'
p2007
aS'189.82.224.0/19'
p2008
aS'189.83.0.0/16'
p2009
aS'189.83.0.0/19'
p2010
aS'189.83.32.0/19'
p2011
aS'189.83.64.0/19'
p2012
aS'189.83.96.0/19'
p2013
aS'189.83.128.0/19'
p2014
aS'189.83.160.0/19'
p2015
aS'189.83.192.0/19'
p2016
aS'189.83.224.0/19'
p2017
aS'189.104.0.0/14'
p2018
aS'189.104.0.0/16'
p2019
aS'189.104.0.0/19'
p2020
aS'189.104.32.0/19'
p2021
aS'189.104.64.0/19'
p2022
aS'189.104.96.0/19'
p2023
aS'189.104.128.0/19'
p2024
aS'189.104.160.0/19'
p2025
aS'189.104.192.0/19'
p2026
aS'189.104.224.0/19'
p2027
aS'189.105.0.0/16'
p2028
aS'189.105.0.0/19'
p2029
aS'189.105.32.0/19'
p2030
aS'189.105.64.0/19'
p2031
aS'189.105.96.0/19'
p2032
aS'189.105.128.0/19'
p2033
aS'189.105.160.0/19'
p2034
aS'189.105.192.0/19'
p2035
aS'189.105.224.0/19'
p2036
aS'189.106.0.0/16'
p2037
aS'189.106.0.0/19'
p2038
aS'189.106.32.0/19'
p2039
aS'189.106.64.0/19'
p2040
aS'189.106.96.0/19'
p2041
aS'189.106.128.0/19'
p2042
aS'189.106.160.0/19'
p2043
aS'189.106.192.0/19'
p2044
aS'189.106.224.0/19'
p2045
aS'189.107.0.0/16'
p2046
aS'189.107.0.0/19'
p2047
aS'189.107.32.0/19'
p2048
aS'189.107.64.0/19'
p2049
aS'189.107.96.0/19'
p2050
aS'189.107.128.0/19'
p2051
aS'189.107.160.0/19'
p2052
aS'189.107.192.0/19'
p2053
aS'189.107.224.0/19'
p2054
aS'191.0.0.0/14'
p2055
aS'191.0.0.0/19'
p2056
aS'191.0.32.0/19'
p2057
aS'191.0.64.0/19'
p2058
aS'191.0.64.0/20'
p2059
aS'191.0.96.0/19'
p2060
aS'191.0.128.0/19'
p2061
aS'191.0.160.0/19'
p2062
aS'191.0.192.0/19'
p2063
aS'191.0.224.0/19'
p2064
aS'191.1.0.0/19'
p2065
aS'191.1.32.0/19'
p2066
aS'191.1.64.0/19'
p2067
aS'191.1.96.0/19'
p2068
aS'191.1.128.0/19'
p2069
aS'191.1.160.0/19'
p2070
aS'191.1.192.0/19'
p2071
aS'191.1.224.0/19'
p2072
aS'191.2.0.0/19'
p2073
aS'191.2.32.0/19'
p2074
aS'191.2.64.0/19'
p2075
aS'191.2.96.0/19'
p2076
aS'191.2.128.0/19'
p2077
aS'191.2.160.0/19'
p2078
aS'191.2.192.0/19'
p2079
aS'191.2.224.0/19'
p2080
aS'191.3.0.0/19'
p2081
aS'191.3.32.0/19'
p2082
aS'191.3.64.0/19'
p2083
aS'191.3.96.0/19'
p2084
aS'191.3.128.0/19'
p2085
aS'191.3.160.0/19'
p2086
aS'191.3.192.0/19'
p2087
aS'191.3.224.0/19'
p2088
aS'191.40.0.0/13'
p2089
aS'191.40.0.0/19'
p2090
aS'191.40.32.0/19'
p2091
aS'191.40.64.0/19'
p2092
aS'191.40.96.0/19'
p2093
aS'191.40.128.0/19'
p2094
aS'191.40.160.0/19'
p2095
aS'191.40.192.0/19'
p2096
aS'191.40.224.0/19'
p2097
aS'191.41.0.0/19'
p2098
aS'191.41.32.0/19'
p2099
aS'191.41.64.0/19'
p2100
aS'191.41.96.0/19'
p2101
aS'191.41.128.0/19'
p2102
aS'191.41.160.0/19'
p2103
aS'191.41.192.0/19'
p2104
aS'191.41.224.0/19'
p2105
aS'191.42.0.0/19'
p2106
aS'191.42.32.0/19'
p2107
aS'191.42.64.0/19'
p2108
aS'191.42.96.0/19'
p2109
aS'191.42.128.0/19'
p2110
aS'191.42.160.0/19'
p2111
aS'191.42.192.0/19'
p2112
aS'191.42.224.0/19'
p2113
aS'191.43.0.0/19'
p2114
aS'191.43.32.0/19'
p2115
aS'191.43.64.0/19'
p2116
aS'191.43.96.0/19'
p2117
aS'191.43.128.0/19'
p2118
aS'191.43.160.0/19'
p2119
aS'191.43.192.0/19'
p2120
aS'191.43.224.0/19'
p2121
aS'191.44.0.0/19'
p2122
aS'191.44.32.0/19'
p2123
aS'191.44.64.0/19'
p2124
aS'191.44.96.0/19'
p2125
aS'191.44.128.0/19'
p2126
aS'191.44.160.0/19'
p2127
aS'191.44.192.0/19'
p2128
aS'191.44.224.0/19'
p2129
aS'191.45.0.0/19'
p2130
aS'191.45.32.0/19'
p2131
aS'191.45.64.0/19'
p2132
aS'191.45.96.0/19'
p2133
aS'191.45.128.0/19'
p2134
aS'191.45.160.0/19'
p2135
aS'191.45.192.0/19'
p2136
aS'191.45.224.0/19'
p2137
aS'191.46.0.0/19'
p2138
aS'191.46.32.0/19'
p2139
aS'191.46.64.0/19'
p2140
aS'191.46.96.0/19'
p2141
aS'191.46.128.0/19'
p2142
aS'191.46.160.0/19'
p2143
aS'191.46.192.0/19'
p2144
aS'191.46.224.0/19'
p2145
aS'191.47.0.0/19'
p2146
aS'191.47.32.0/19'
p2147
aS'191.47.64.0/19'
p2148
aS'191.47.96.0/19'
p2149
aS'191.47.128.0/19'
p2150
aS'191.47.160.0/19'
p2151
aS'191.47.192.0/19'
p2152
aS'191.47.224.0/19'
p2153
aS'191.212.0.0/14'
p2154
aS'191.212.0.0/19'
p2155
aS'191.212.32.0/19'
p2156
aS'191.212.64.0/19'
p2157
aS'191.212.96.0/19'
p2158
aS'191.212.128.0/19'
p2159
aS'191.212.160.0/19'
p2160
aS'191.212.192.0/19'
p2161
aS'191.212.224.0/19'
p2162
aS'191.213.0.0/19'
p2163
aS'191.213.32.0/19'
p2164
aS'191.213.64.0/19'
p2165
aS'191.213.96.0/19'
p2166
aS'191.213.128.0/19'
p2167
aS'191.213.160.0/19'
p2168
aS'191.213.192.0/19'
p2169
aS'191.213.224.0/19'
p2170
aS'191.214.0.0/19'
p2171
aS'191.214.32.0/19'
p2172
aS'191.214.64.0/19'
p2173
aS'191.214.96.0/19'
p2174
aS'191.214.128.0/19'
p2175
aS'191.214.160.0/19'
p2176
aS'191.214.192.0/19'
p2177
aS'191.214.224.0/19'
p2178
aS'191.215.32.0/19'
p2179
aS'191.215.64.0/19'
p2180
aS'191.215.96.0/19'
p2181
aS'191.215.128.0/19'
p2182
aS'191.215.160.0/19'
p2183
aS'191.215.192.0/19'
p2184
aS'191.215.224.0/19'
p2185
aS'200.97.0.0/16'
p2186
aS'200.97.0.0/17'
p2187
aS'200.97.128.0/17'
p2188
aS'200.141.0.0/16'
p2189
aS'200.141.0.0/17'
p2190
aS'200.141.128.0/17'
p2191
aS'200.149.0.0/16'
p2192
aS'200.149.0.0/17'
p2193
aS'200.149.128.0/17'
p2194
aS'200.149.128.0/18'
p2195
aS'200.149.192.0/18'
p2196
aS'200.149.216.0/24'
p2197
aS'200.151.0.0/16'
p2198
aS'200.151.0.0/17'
p2199
aS'200.151.0.0/18'
p2200
aS'200.151.64.0/18'
p2201
aS'200.151.128.0/17'
p2202
aS'200.151.128.0/18'
p2203
aS'200.151.192.0/18'
p2204
aS'200.164.0.0/15'
p2205
aS'200.164.0.0/16'
p2206
aS'200.164.0.0/19'
p2207
aS'200.164.128.0/17'
p2208
aS'200.164.128.0/18'
p2209
aS'200.164.128.0/21'
p2210
aS'200.165.0.0/16'
p2211
aS'200.165.0.0/17'
p2212
aS'200.165.128.0/17'
p2213
aS'200.165.192.0/18'
p2214
aS'200.187.128.0/19'
p2215
aS'200.195.0.0/17'
p2216
aS'200.195.0.0/18'
p2217
aS'200.195.64.0/18'
p2218
aS'200.199.0.0/17'
p2219
aS'200.199.0.0/18'
p2220
aS'200.199.64.0/18'
p2221
aS'200.199.128.0/18'
p2222
aS'200.199.128.0/19'
p2223
aS'200.199.160.0/19'
p2224
aS'200.202.192.0/18'
p2225
aS'200.202.192.0/19'
p2226
aS'200.202.224.0/19'
p2227
aS'200.216.0.0/15'
p2228
aS'200.216.0.0/16'
p2229
aS'200.216.0.0/18'
p2230
aS'200.216.64.0/19'
p2231
aS'200.216.96.0/19'
p2232
aS'200.216.128.0/18'
p2233
aS'200.216.160.0/19'
p2234
aS'200.216.192.0/18'
p2235
aS'200.217.0.0/19'
p2236
aS'200.217.32.0/19'
p2237
aS'200.217.64.0/18'
p2238
aS'200.217.128.0/17'
p2239
aS'200.222.0.0/15'
p2240
aS'200.222.0.0/16'
p2241
aS'200.222.0.0/17'
p2242
aS'200.222.128.0/17'
p2243
aS'200.223.0.0/16'
p2244
aS'200.223.0.0/17'
p2245
aS'200.223.128.0/17'
p2246
aS'201.4.0.0/16'
p2247
aS'201.4.0.0/17'
p2248
aS'201.4.32.0/19'
p2249
aS'201.4.128.0/17'
p2250
aS'201.5.0.0/16'
p2251
aS'201.5.0.0/17'
p2252
aS'201.5.128.0/17'
p2253
aS'201.8.0.0/16'
p2254
aS'201.8.0.0/17'
p2255
aS'201.8.0.0/18'
p2256
aS'201.8.0.0/19'
p2257
aS'201.8.32.0/19'
p2258
aS'201.8.64.0/18'
p2259
aS'201.8.64.0/19'
p2260
aS'201.8.96.0/19'
p2261
aS'201.8.128.0/17'
p2262
aS'201.8.128.0/18'
p2263
aS'201.8.128.0/19'
p2264
aS'201.8.160.0/19'
p2265
aS'201.8.192.0/18'
p2266
aS'201.8.192.0/19'
p2267
aS'201.8.224.0/19'
p2268
aS'201.9.0.0/16'
p2269
aS'201.9.0.0/17'
p2270
aS'201.9.0.0/18'
p2271
aS'201.9.0.0/19'
p2272
aS'201.9.32.0/19'
p2273
aS'201.9.64.0/18'
p2274
aS'201.9.64.0/19'
p2275
aS'201.9.96.0/19'
p2276
aS'201.9.128.0/17'
p2277
aS'201.9.128.0/18'
p2278
aS'201.9.128.0/19'
p2279
aS'201.9.160.0/19'
p2280
aS'201.9.192.0/18'
p2281
aS'201.9.192.0/19'
p2282
aS'201.9.224.0/19'
p2283
aS'201.18.0.0/16'
p2284
aS'201.18.0.0/17'
p2285
aS'201.18.128.0/17'
p2286
aS'201.19.0.0/16'
p2287
aS'201.19.0.0/17'
p2288
aS'201.19.0.0/19'
p2289
aS'201.19.32.0/19'
p2290
aS'201.19.64.0/19'
p2291
aS'201.19.96.0/19'
p2292
aS'201.19.128.0/17'
p2293
aS'201.19.128.0/19'
p2294
aS'201.19.160.0/19'
p2295
aS'201.19.192.0/19'
p2296
aS'201.19.224.0/19'
p2297
aS'201.29.0.0/16'
p2298
aS'201.29.0.0/17'
p2299
aS'201.29.0.0/18'
p2300
aS'201.29.64.0/18'
p2301
aS'201.29.128.0/17'
p2302
aS'201.29.128.0/18'
p2303
aS'201.29.192.0/18'
p2304
aS'201.32.0.0/16'
p2305
aS'201.32.0.0/17'
p2306
aS'201.32.128.0/17'
p2307
aS'201.50.0.0/16'
p2308
aS'201.50.0.0/17'
p2309
aS'201.50.0.0/18'
p2310
aS'201.50.0.0/19'
p2311
aS'201.50.32.0/19'
p2312
aS'201.50.64.0/18'
p2313
aS'201.50.64.0/19'
p2314
aS'201.50.96.0/19'
p2315
aS'201.50.128.0/17'
p2316
aS'201.50.128.0/18'
p2317
aS'201.50.128.0/19'
p2318
aS'201.50.160.0/19'
p2319
aS'201.50.192.0/18'
p2320
aS'201.50.192.0/19'
p2321
aS'201.50.224.0/19'
p2322
aS'201.51.0.0/16'
p2323
aS'201.51.0.0/17'
p2324
aS'201.51.0.0/18'
p2325
aS'201.51.0.0/19'
p2326
aS'201.51.32.0/19'
p2327
aS'201.51.64.0/18'
p2328
aS'201.51.64.0/19'
p2329
aS'201.51.96.0/19'
p2330
aS'201.51.128.0/17'
p2331
aS'201.51.128.0/18'
p2332
aS'201.51.128.0/19'
p2333
aS'201.51.160.0/19'
p2334
aS'201.51.192.0/18'
p2335
aS'201.51.192.0/19'
p2336
aS'201.51.224.0/19'
p2337
aS'201.58.0.0/16'
p2338
aS'201.58.0.0/17'
p2339
aS'201.58.128.0/17'
p2340
aS'201.59.0.0/16'
p2341
aS'201.59.0.0/17'
p2342
aS'201.59.128.0/17'
p2343
aS'201.78.0.0/16'
p2344
aS'201.78.0.0/17'
p2345
aS'201.78.0.0/18'
p2346
aS'201.78.0.0/19'
p2347
aS'201.78.32.0/19'
p2348
aS'201.78.64.0/18'
p2349
aS'201.78.64.0/19'
p2350
aS'201.78.96.0/19'
p2351
aS'201.78.128.0/17'
p2352
aS'201.78.128.0/18'
p2353
aS'201.78.128.0/19'
p2354
aS'201.78.160.0/19'
p2355
aS'201.78.192.0/18'
p2356
aS'201.78.192.0/19'
p2357
aS'201.78.224.0/19'
p2358
aS'201.79.0.0/16'
p2359
aS'201.79.0.0/17'
p2360
aS'201.79.0.0/18'
p2361
aS'201.79.0.0/19'
p2362
aS'201.79.32.0/19'
p2363
aS'201.79.64.0/18'
p2364
aS'201.79.64.0/19'
p2365
aS'201.79.96.0/19'
p2366
aS'201.79.128.0/17'
p2367
aS'201.79.128.0/18'
p2368
aS'201.79.128.0/19'
p2369
aS'201.79.160.0/19'
p2370
aS'201.79.192.0/18'
p2371
aS'201.79.192.0/19'
p2372
aS'201.79.224.0/19'
p2373
aa(lp2374
S'5.144.96.0/19'
p2375
aS'62.5.128.0/17'
p2376
aS'62.118.0.0/16'
p2377
aS'62.118.67.0/24'
p2378
aS'62.118.128.0/19'
p2379
aS'62.152.64.0/19'
p2380
aS'81.195.0.0/16'
p2381
aS'82.96.192.0/18'
p2382
aS'82.204.128.0/17'
p2383
aS'83.136.24.0/21'
p2384
aS'83.237.0.0/16'
p2385
aS'83.242.128.0/17'
p2386
aS'83.242.224.0/21'
p2387
aS'84.17.0.0/19'
p2388
aS'85.140.0.0/15'
p2389
aS'85.235.160.0/19'
p2390
aS'89.175.0.0/16'
p2391
aS'89.175.248.0/21'
p2392
aS'89.209.0.0/16'
p2393
aS'91.76.0.0/14'
p2394
aS'91.220.120.0/24'
p2395
aS'92.38.4.0/24'
p2396
aS'94.72.0.0/18'
p2397
aS'95.47.176.0/24'
p2398
aS'109.236.96.0/20'
p2399
aS'176.222.200.0/21'
p2400
aS'176.241.96.0/21'
p2401
aS'193.27.234.0/23'
p2402
aS'193.107.232.0/22'
p2403
aS'195.7.160.0/19'
p2404
aS'195.34.0.0/19'
p2405
aS'195.34.15.0/24'
p2406
aS'195.34.32.0/19'
p2407
aS'195.34.42.0/24'
p2408
aS'195.42.64.0/19'
p2409
aS'195.96.64.0/19'
p2410
aS'195.96.67.0/24'
p2411
aS'195.96.70.0/24'
p2412
aS'195.96.76.0/24'
p2413
aS'195.96.77.0/24'
p2414
aS'195.96.80.0/24'
p2415
aS'195.96.84.0/22'
p2416
aS'195.137.192.0/23'
p2417
aS'195.208.64.0/19'
p2418
aS'195.210.128.0/18'
p2419
aS'212.30.128.0/18'
p2420
aS'212.30.132.0/24'
p2421
aS'212.40.32.0/19'
p2422
aS'212.48.32.0/19'
p2423
aS'212.48.42.0/24'
p2424
aS'212.188.0.0/17'
p2425
aS'212.248.0.0/17'
p2426
aS'213.87.64.0/22'
p2427
aS'213.87.70.0/23'
p2428
aS'213.87.76.0/23'
p2429
aS'213.87.80.0/20'
p2430
aS'213.87.128.0/21'
p2431
aS'213.87.136.0/21'
p2432
aS'213.87.200.0/21'
p2433
aS'213.87.240.0/22'
p2434
aS'213.87.244.0/23'
p2435
aS'213.87.248.0/22'
p2436
aS'213.147.32.0/19'
p2437
aS'217.66.158.0/23'
p2438
aS'217.69.192.0/19'
p2439
aa(lp2440
S'31.12.12.0/22'
p2441
aS'31.187.104.0/24'
p2442
aS'31.187.105.0/24'
p2443
aS'31.187.106.0/24'
p2444
aS'31.187.107.0/24'
p2445
aS'31.187.108.0/22'
p2446
aS'46.16.200.0/22'
p2447
aS'46.16.200.0/24'
p2448
aS'46.19.48.0/21'
p2449
aS'46.31.248.0/23'
p2450
aS'46.31.250.0/23'
p2451
aS'46.31.252.0/23'
p2452
aS'46.31.254.0/23'
p2453
aS'46.182.0.0/21'
p2454
aS'62.50.0.0/19'
p2455
aS'62.50.32.0/19'
p2456
aS'62.50.64.0/19'
p2457
aS'62.50.128.0/19'
p2458
aS'80.88.224.0/20'
p2459
aS'80.254.148.0/23'
p2460
aS'80.254.150.0/23'
p2461
aS'81.31.0.0/19'
p2462
aS'84.233.128.0/17'
p2463
aS'89.202.128.0/17'
p2464
aS'89.202.141.0/24'
p2465
aS'89.202.167.0/24'
p2466
aS'89.202.206.0/24'
p2467
aS'89.202.213.0/24'
p2468
aS'89.202.240.0/24'
p2469
aS'91.198.73.0/24'
p2470
aS'91.198.224.0/24'
p2471
aS'91.199.75.0/24'
p2472
aS'91.221.12.0/23'
p2473
aS'91.232.35.0/24'
p2474
aS'91.236.59.0/24'
p2475
aS'94.127.40.0/21'
p2476
aS'109.236.206.0/24'
p2477
aS'131.176.196.0/23'
p2478
aS'131.176.215.0/24'
p2479
aS'131.176.216.0/21'
p2480
aS'131.176.243.0/24'
p2481
aS'131.176.244.0/24'
p2482
aS'131.176.245.0/24'
p2483
aS'131.176.246.0/24'
p2484
aS'131.176.247.0/24'
p2485
aS'131.176.248.0/24'
p2486
aS'131.176.249.0/24'
p2487
aS'131.176.250.0/24'
p2488
aS'131.176.251.0/24'
p2489
aS'134.19.168.0/22'
p2490
aS'134.19.172.0/24'
p2491
aS'134.19.173.0/24'
p2492
aS'134.19.174.0/24'
p2493
aS'134.19.175.0/24'
p2494
aS'138.205.0.0/21'
p2495
aS'138.205.160.0/20'
p2496
aS'151.89.0.0/16'
p2497
aS'154.14.0.0/16'
p2498
aS'154.15.0.0/16'
p2499
aS'168.238.64.0/22'
p2500
aS'178.22.248.0/22'
p2501
aS'178.22.255.0/24'
p2502
aS'178.248.144.0/23'
p2503
aS'178.248.146.0/23'
p2504
aS'178.248.148.0/23'
p2505
aS'178.248.150.0/23'
p2506
aS'185.6.240.0/23'
p2507
aS'185.6.242.0/24'
p2508
aS'185.11.232.0/22'
p2509
aS'185.15.226.0/24'
p2510
aS'185.15.227.0/24'
p2511
aS'185.33.112.0/24'
p2512
aS'188.244.112.0/20'
p2513
aS'192.36.210.0/24'
p2514
aS'192.71.43.0/24'
p2515
aS'192.71.157.0/24'
p2516
aS'193.17.171.0/24'
p2517
aS'193.53.37.0/24'
p2518
aS'193.96.188.0/24'
p2519
aS'193.105.128.0/24'
p2520
aS'193.109.48.0/23'
p2521
aS'193.141.96.0/23'
p2522
aS'193.141.96.0/24'
p2523
aS'193.141.97.0/24'
p2524
aS'193.182.104.0/24'
p2525
aS'193.189.192.0/19'
p2526
aS'193.221.61.0/24'
p2527
aS'193.235.27.0/24'
p2528
aS'193.239.132.0/24'
p2529
aS'194.14.211.0/24'
p2530
aS'194.39.214.0/24'
p2531
aS'194.41.63.0/24'
p2532
aS'194.42.64.0/19'
p2533
aS'194.45.184.0/24'
p2534
aS'194.120.119.0/24'
p2535
aS'194.138.120.0/21'
p2536
aS'194.145.224.0/24'
p2537
aS'194.150.0.0/18'
p2538
aS'194.158.0.0/19'
p2539
aS'194.183.96.0/19'
p2540
aS'195.7.64.0/19'
p2541
aS'195.7.192.0/19'
p2542
aS'195.21.0.0/16'
p2543
aS'195.28.192.0/19'
p2544
aS'195.72.64.0/19'
p2545
aS'195.81.0.0/16'
p2546
aS'195.81.144.0/21'
p2547
aS'195.81.156.0/24'
p2548
aS'195.81.159.0/24'
p2549
aS'195.94.32.0/19'
p2550
aS'195.95.148.0/24'
p2551
aS'195.134.192.0/19'
p2552
aS'195.143.0.0/16'
p2553
aS'195.149.128.0/18'
p2554
aS'195.190.64.0/19'
p2555
aS'195.202.96.0/19'
p2556
aS'195.214.216.0/22'
p2557
aS'195.246.128.0/19'
p2558
aS'195.254.130.0/23'
p2559
aS'196.4.55.0/24'
p2560
aS'212.23.32.0/19'
p2561
aS'212.27.160.0/19'
p2562
aS'212.81.64.0/18'
p2563
aS'212.115.128.0/18'
p2564
aS'212.221.0.0/17'
p2565
aS'212.222.0.0/16'
p2566
aS'212.222.128.0/24'
p2567
aS'213.39.0.0/17'
p2568
aS'213.251.0.0/18'
p2569
aS'217.118.112.0/20'
p2570
aa(lp2571
S'87.245.192.0/18'
p2572
aa(lp2573
S'37.17.232.0/22'
p2574
aS'37.17.236.0/23'
p2575
aS'37.17.238.0/23'
p2576
aS'46.28.204.142/32'
p2577
aS'46.28.205.34/32'
p2578
aS'64.35.8.0/22'
p2579
aS'77.109.128.0/18'
p2580
aS'77.109.128.0/19'
p2581
aS'77.109.130.128/29'
p2582
aS'77.109.130.152/29'
p2583
aS'77.109.131.32/29'
p2584
aS'77.109.132.104/29'
p2585
aS'77.109.132.192/27'
p2586
aS'77.109.133.128/25'
p2587
aS'77.109.141.48/28'
p2588
aS'77.109.141.176/29'
p2589
aS'77.109.145.88/29'
p2590
aS'77.109.160.0/19'
p2591
aS'77.109.168.0/21'
p2592
aS'77.109.176.0/25'
p2593
aS'77.109.179.0/24'
p2594
aS'82.197.160.0/19'
p2595
aS'82.197.160.0/20'
p2596
aS'82.197.162.0/28'
p2597
aS'82.197.167.32/29'
p2598
aS'82.197.176.0/20'
p2599
aS'82.197.176.128/29'
p2600
aS'82.197.184.208/29'
p2601
aS'87.239.208.0/21'
p2602
aS'91.123.106.0/24'
p2603
aS'91.123.108.0/23'
p2604
aS'91.123.111.0/24'
p2605
aS'91.198.8.0/24'
p2606
aS'91.198.154.0/24'
p2607
aS'91.209.98.0/24'
p2608
aS'178.250.128.0/21'
p2609
aS'185.11.168.0/22'
p2610
aS'185.35.28.0/22'
p2611
aS'193.47.153.0/24'
p2612
aS'193.104.148.0/24'
p2613
aS'193.222.255.0/24'
p2614
aS'193.223.80.0/20'
p2615
aS'194.9.34.0/24'
p2616
aS'194.9.35.0/24'
p2617
aS'195.8.117.0/24'
p2618
aS'195.8.210.0/23'
p2619
aS'195.162.160.0/24'
p2620
aS'195.211.32.0/22'
p2621
aS'212.51.128.0/19'
p2622
aS'212.51.128.0/20'
p2623
aS'212.51.144.0/20'
p2624
aS'213.144.128.0/19'
p2625
aS'213.144.128.0/20'
p2626
aS'213.144.131.0/28'
p2627
aS'213.144.131.72/29'
p2628
aS'213.144.131.88/29'
p2629
aS'213.144.131.224/29'
p2630
aS'213.144.144.0/20'
p2631
aS'216.185.39.0/24'
p2632
aa(lp2633
S'66.36.226.0/23'
p2634
aS'66.36.228.0/22'
p2635
aS'66.36.232.0/21'
p2636
aS'66.36.240.0/20'
p2637
aS'66.148.64.0/19'
p2638
aS'66.148.93.0/24'
p2639
aS'66.148.94.0/24'
p2640
aS'66.148.95.0/24'
p2641
aS'66.148.96.0/20'
p2642
aS'66.148.112.0/20'
p2643
aS'66.235.160.0/19'
p2644
aS'74.84.128.0/19'
p2645
aS'192.94.73.0/24'
p2646
aS'207.228.224.0/24'
p2647
aS'207.228.225.0/24'
p2648
aS'207.228.226.0/23'
p2649
aS'207.228.228.0/22'
p2650
aS'207.228.232.0/21'
p2651
aS'207.228.240.0/22'
p2652
aS'207.228.244.0/22'
p2653
aS'207.228.248.0/24'
p2654
aS'207.228.249.0/24'
p2655
aS'207.228.250.0/23'
p2656
aS'207.228.252.0/22'
p2657
aS'209.40.96.0/19'
p2658
aS'209.61.192.0/22'
p2659
aS'209.61.196.0/22'
p2660
aS'209.61.200.0/21'
p2661
aS'209.61.208.0/21'
p2662
aS'209.61.216.0/22'
p2663
aS'209.61.220.0/22'
p2664
aS'209.61.224.0/21'
p2665
aS'209.61.232.0/22'
p2666
aS'209.61.236.0/23'
p2667
aS'209.61.238.0/23'
p2668
aS'209.61.240.0/20'
p2669
aS'209.103.160.0/19'
p2670
aS'209.160.0.0/22'
p2671
aS'209.160.4.0/24'
p2672
aS'209.160.5.0/24'
p2673
aS'209.160.6.0/23'
p2674
aS'209.160.8.0/22'
p2675
aS'209.160.12.0/22'
p2676
aS'209.160.16.0/21'
p2677
aS'209.160.24.0/21'
p2678
aS'209.160.32.0/20'
p2679
aS'209.160.48.0/21'
p2680
aS'209.160.56.0/22'
p2681
aS'209.160.61.0/24'
p2682
aS'209.160.64.0/20'
p2683
aa(lp2684
S'62.216.128.0/19'
p2685
aS'80.77.0.0/20'
p2686
aS'80.81.64.0/19'
p2687
aS'85.95.24.0/22'
p2688
aS'94.125.34.0/24'
p2689
aS'168.252.120.0/22'
p2690
aS'203.79.32.0/20'
p2691
aa(lp2692
S'64.38.96.0/19'
p2693
aS'64.127.128.0/17'
p2694
aS'66.186.192.0/19'
p2695
aS'66.216.0.0/18'
p2696
aS'66.216.41.0/24'
p2697
aS'66.216.50.0/23'
p2698
aS'204.235.96.0/21'
p2699
aS'204.235.104.0/24'
p2700
aa(lp2701
S'69.48.128.0/18'
p2702
aS'69.48.129.0/24'
p2703
aS'69.48.131.0/24'
p2704
aS'69.48.134.0/23'
p2705
aS'69.48.136.0/24'
p2706
aS'69.48.137.0/24'
p2707
aS'69.48.141.0/24'
p2708
aS'69.48.143.0/24'
p2709
aS'69.48.149.0/24'
p2710
aS'69.48.152.0/24'
p2711
aS'69.48.187.0/24'
p2712
aS'69.48.188.0/24'
p2713
aS'69.48.190.0/24'
p2714
aS'74.113.32.0/21'
p2715
aS'165.254.97.0/24'
p2716
aS'165.254.97.1/32'
p2717
aS'165.254.97.2/32'
p2718
aS'165.254.97.5/32'
p2719
aS'165.254.97.6/32'
p2720
aS'165.254.97.254/32'
p2721
aS'165.254.98.0/24'
p2722
aS'165.254.101.0/24'
p2723
aS'165.254.147.0/24'
p2724
aS'192.246.88.0/24'
p2725
aS'199.4.220.0/24'
p2726
aS'199.79.133.0/24'
p2727
aS'199.224.0.0/23'
p2728
aS'199.224.6.0/24'
p2729
aS'199.224.9.0/24'
p2730
aS'199.224.13.0/24'
p2731
aS'199.224.14.0/23'
p2732
aS'199.224.14.0/24'
p2733
aS'204.107.90.0/24'
p2734
aS'204.141.35.0/24'
p2735
aS'204.141.36.0/24'
p2736
aS'204.141.96.0/24'
p2737
aa(lp2738
S'94.124.180.0/23'
p2739
aS'94.124.182.0/24'
p2740
aS'94.124.183.0/24'
p2741
aS'95.140.80.0/20'
p2742
aS'95.140.94.0/24'
p2743
aS'109.239.128.0/20'
p2744
aS'109.239.130.0/24'
p2745
aS'109.239.131.0/24'
p2746
aS'109.239.132.0/24'
p2747
aS'109.239.135.0/24'
p2748
aS'109.239.138.0/24'
p2749
aS'109.239.139.0/24'
p2750
aS'194.242.14.0/23'
p2751
aa(lp2752
S'5.10.64.0/18'
p2753
aS'5.153.0.0/18'
p2754
aS'23.91.120.0/21'
p2755
aS'23.239.24.0/22'
p2756
aS'23.246.192.0/18'
p2757
aS'37.18.176.0/22'
p2758
aS'37.46.10.0/23'
p2759
aS'37.46.14.0/24'
p2760
aS'37.46.15.0/24'
p2761
aS'37.58.64.0/18'
p2762
aS'37.58.64.0/19'
p2763
aS'37.130.224.0/24'
p2764
aS'46.16.184.0/21'
p2765
aS'50.22.0.0/18'
p2766
aS'50.22.64.0/18'
p2767
aS'50.22.128.0/18'
p2768
aS'50.22.192.0/18'
p2769
aS'50.23.0.0/18'
p2770
aS'50.23.64.0/18'
p2771
aS'50.23.128.0/18'
p2772
aS'50.23.192.0/18'
p2773
aS'50.97.0.0/19'
p2774
aS'50.97.16.0/23'
p2775
aS'50.97.32.0/19'
p2776
aS'50.97.64.0/19'
p2777
aS'50.97.96.0/19'
p2778
aS'50.97.120.0/21'
p2779
aS'50.97.128.0/18'
p2780
aS'50.97.192.0/18'
p2781
aS'50.116.16.0/20'
p2782
aS'50.116.64.0/22'
p2783
aS'50.116.68.0/22'
p2784
aS'50.116.76.0/22'
p2785
aS'50.116.80.0/22'
p2786
aS'50.116.84.0/22'
p2787
aS'50.116.88.0/22'
p2788
aS'50.116.92.0/22'
p2789
aS'50.116.96.0/21'
p2790
aS'50.116.112.0/22'
p2791
aS'50.116.120.0/22'
p2792
aS'63.141.128.0/22'
p2793
aS'63.141.132.0/22'
p2794
aS'63.141.136.0/22'
p2795
aS'63.141.140.0/22'
p2796
aS'63.141.144.0/22'
p2797
aS'63.141.144.0/24'
p2798
aS'63.141.148.0/23'
p2799
aS'63.141.150.0/23'
p2800
aS'63.141.152.0/23'
p2801
aS'63.141.154.0/23'
p2802
aS'63.141.156.0/23'
p2803
aS'63.141.158.0/23'
p2804
aS'66.36.176.0/21'
p2805
aS'66.36.184.0/22'
p2806
aS'66.228.48.0/21'
p2807
aS'66.228.112.0/20'
p2808
aS'66.241.112.0/21'
p2809
aS'66.241.120.0/21'
p2810
aS'67.213.208.0/22'
p2811
aS'67.213.212.0/23'
p2812
aS'67.213.214.0/23'
p2813
aS'67.213.216.0/23'
p2814
aS'67.213.218.0/24'
p2815
aS'67.213.219.0/24'
p2816
aS'67.213.220.0/23'
p2817
aS'67.213.222.0/24'
p2818
aS'67.213.223.0/24'
p2819
aS'67.228.0.0/18'
p2820
aS'67.228.64.0/20'
p2821
aS'67.228.80.0/20'
p2822
aS'67.228.96.0/19'
p2823
aS'67.228.128.0/18'
p2824
aS'67.228.192.0/19'
p2825
aS'67.228.224.0/20'
p2826
aS'67.228.240.0/20'
p2827
aS'67.228.252.0/23'
p2828
aS'67.228.254.0/23'
p2829
aS'69.4.224.0/24'
p2830
aS'69.4.225.0/24'
p2831
aS'69.4.226.0/23'
p2832
aS'69.4.228.0/23'
p2833
aS'69.4.230.0/23'
p2834
aS'69.4.232.0/24'
p2835
aS'69.4.233.0/24'
p2836
aS'69.4.234.0/24'
p2837
aS'69.4.235.0/24'
p2838
aS'69.4.236.0/23'
p2839
aS'69.4.238.0/23'
p2840
aS'69.6.64.0/21'
p2841
aS'69.164.192.0/20'
p2842
aS'72.14.176.0/20'
p2843
aS'74.86.0.0/16'
p2844
aS'74.116.84.0/24'
p2845
aS'74.116.85.0/24'
p2846
aS'75.126.0.0/16'
p2847
aS'75.126.0.0/20'
p2848
aS'75.126.16.0/20'
p2849
aS'75.126.32.0/20'
p2850
aS'75.126.48.0/20'
p2851
aS'75.126.64.0/20'
p2852
aS'75.126.80.0/20'
p2853
aS'75.126.112.0/20'
p2854
aS'75.126.128.0/20'
p2855
aS'75.126.144.0/20'
p2856
aS'75.126.160.0/20'
p2857
aS'75.126.176.0/20'
p2858
aS'75.126.192.0/20'
p2859
aS'75.126.208.0/20'
p2860
aS'81.95.144.0/20'
p2861
aS'89.38.52.0/24'
p2862
aS'89.38.53.0/24'
p2863
aS'89.38.54.0/24'
p2864
aS'89.38.55.0/24'
p2865
aS'96.47.32.0/23'
p2866
aS'96.47.40.0/21'
p2867
aS'96.125.160.0/22'
p2868
aS'96.125.164.0/22'
p2869
aS'96.125.168.0/22'
p2870
aS'96.125.172.0/22'
p2871
aS'96.126.112.0/20'
p2872
aS'100.42.48.0/24'
p2873
aS'100.42.49.0/24'
p2874
aS'100.42.50.0/23'
p2875
aS'100.42.52.0/22'
p2876
aS'100.42.58.0/23'
p2877
aS'100.42.62.0/24'
p2878
aS'103.4.192.0/23'
p2879
aS'103.4.194.0/23'
p2880
aS'103.226.228.0/23'
p2881
aS'103.226.230.0/23'
p2882
aS'103.243.19.0/24'
p2883
aS'103.243.72.0/24'
p2884
aS'103.243.73.0/24'
p2885
aS'103.243.74.0/23'
p2886
aS'103.243.145.0/24'
p2887
aS'103.246.140.0/24'
p2888
aS'103.253.25.0/24'
p2889
aS'103.253.26.0/23'
p2890
aS'108.161.191.0/24'
p2891
aS'108.167.128.0/22'
p2892
aS'108.167.136.0/22'
p2893
aS'108.167.144.0/22'
p2894
aS'108.167.148.0/22'
p2895
aS'108.167.152.0/22'
p2896
aS'108.167.156.0/22'
p2897
aS'108.167.160.0/22'
p2898
aS'108.167.164.0/22'
p2899
aS'108.167.172.0/22'
p2900
aS'108.167.176.0/22'
p2901
aS'108.167.184.0/22'
p2902
aS'108.168.128.0/19'
p2903
aS'108.168.160.0/19'
p2904
aS'108.168.192.0/19'
p2905
aS'108.168.224.0/20'
p2906
aS'108.168.240.0/20'
p2907
aS'108.168.254.0/23'
p2908
aS'108.174.144.0/21'
p2909
aS'108.174.144.0/24'
p2910
aS'108.174.146.0/24'
p2911
aS'108.174.147.0/24'
p2912
aS'108.174.148.0/24'
p2913
aS'108.174.149.0/24'
p2914
aS'108.174.151.0/24'
p2915
aS'108.174.154.0/24'
p2916
aS'108.174.155.0/24'
p2917
aS'108.174.156.0/24'
p2918
aS'108.174.157.0/24'
p2919
aS'108.174.158.0/24'
p2920
aS'108.174.159.0/24'
p2921
aS'108.175.144.0/24'
p2922
aS'108.175.145.0/24'
p2923
aS'108.175.146.0/24'
p2924
aS'108.175.147.0/24'
p2925
aS'108.179.192.0/22'
p2926
aS'108.179.200.0/22'
p2927
aS'108.179.208.0/22'
p2928
aS'108.179.212.0/22'
p2929
aS'108.179.216.0/22'
p2930
aS'108.179.220.0/22'
p2931
aS'108.179.228.0/22'
p2932
aS'108.179.232.0/22'
p2933
aS'108.179.240.0/22'
p2934
aS'108.179.244.0/22'
p2935
aS'108.179.252.0/22'
p2936
aS'108.229.0.0/17'
p2937
aS'108.229.8.0/21'
p2938
aS'108.229.16.0/21'
p2939
aS'108.229.24.0/21'
p2940
aS'108.229.32.0/20'
p2941
aS'108.229.64.0/20'
p2942
aS'108.229.96.0/20'
p2943
aS'108.229.112.0/20'
p2944
aS'111.221.45.0/24'
p2945
aS'111.221.46.0/24'
p2946
aS'119.18.48.0/22'
p2947
aS'119.18.53.0/24'
p2948
aS'119.18.56.0/24'
p2949
aS'119.81.0.0/16'
p2950
aS'149.75.192.0/18'
p2951
aS'159.253.128.0/19'
p2952
aS'159.253.154.0/24'
p2953
aS'159.253.155.0/24'
p2954
aS'162.210.48.0/22'
p2955
aS'162.210.48.0/24'
p2956
aS'162.210.49.0/24'
p2957
aS'162.210.51.0/24'
p2958
aS'162.253.144.0/21'
p2959
aS'162.253.149.0/24'
p2960
aS'165.212.98.0/24'
p2961
aS'165.212.99.0/24'
p2962
aS'173.192.0.0/18'
p2963
aS'173.192.64.0/18'
p2964
aS'173.192.72.0/22'
p2965
aS'173.192.128.0/18'
p2966
aS'173.192.192.0/19'
p2967
aS'173.192.224.0/20'
p2968
aS'173.192.240.0/24'
p2969
aS'173.192.241.0/24'
p2970
aS'173.192.242.0/24'
p2971
aS'173.192.243.0/24'
p2972
aS'173.192.244.0/24'
p2973
aS'173.192.245.0/24'
p2974
aS'173.192.248.0/21'
p2975
aS'173.192.255.0/24'
p2976
aS'173.193.0.0/18'
p2977
aS'173.193.64.0/18'
p2978
aS'173.193.128.0/18'
p2979
aS'173.193.168.0/21'
p2980
aS'173.193.176.0/20'
p2981
aS'173.193.192.0/18'
p2982
aS'173.239.196.0/23'
p2983
aS'173.244.192.0/23'
p2984
aS'173.244.194.0/23'
p2985
aS'173.244.196.0/23'
p2986
aS'173.244.198.0/23'
p2987
aS'173.244.200.0/23'
p2988
aS'173.244.202.0/23'
p2989
aS'173.244.204.0/23'
p2990
aS'173.244.206.0/23'
p2991
aS'173.244.208.0/23'
p2992
aS'173.244.210.0/24'
p2993
aS'173.244.211.0/24'
p2994
aS'173.244.212.0/22'
p2995
aS'173.244.216.0/23'
p2996
aS'173.244.218.0/23'
p2997
aS'173.244.220.0/22'
p2998
aS'173.244.222.0/23'
p2999
aS'173.249.156.0/24'
p3000
aS'173.255.132.0/23'
p3001
aS'173.255.134.0/23'
p3002
aS'173.255.136.0/23'
p3003
aS'173.255.138.0/23'
p3004
aS'173.255.140.0/24'
p3005
aS'173.255.141.0/24'
p3006
aS'173.255.142.0/24'
p3007
aS'173.255.143.0/24'
p3008
aS'173.255.192.0/20'
p3009
aS'174.36.0.0/18'
p3010
aS'174.36.64.0/18'
p3011
aS'174.36.128.0/18'
p3012
aS'174.36.192.0/18'
p3013
aS'174.37.0.0/18'
p3014
aS'174.37.64.0/18'
p3015
aS'174.37.128.0/18'
p3016
aS'174.37.192.0/18'
p3017
aS'174.122.184.0/21'
p3018
aS'174.127.64.0/23'
p3019
aS'174.127.66.0/23'
p3020
aS'174.127.68.0/23'
p3021
aS'174.127.70.0/24'
p3022
aS'174.127.71.0/24'
p3023
aS'174.127.72.0/23'
p3024
aS'174.127.74.0/24'
p3025
aS'174.127.75.0/24'
p3026
aS'174.127.76.0/23'
p3027
aS'174.127.78.0/24'
p3028
aS'174.127.79.0/24'
p3029
aS'174.127.80.0/23'
p3030
aS'174.127.82.0/23'
p3031
aS'174.127.84.0/24'
p3032
aS'174.127.85.0/24'
p3033
aS'174.127.86.0/23'
p3034
aS'174.127.88.0/24'
p3035
aS'174.127.89.0/24'
p3036
aS'174.127.90.0/24'
p3037
aS'174.127.92.0/23'
p3038
aS'174.127.94.0/24'
p3039
aS'174.127.95.0/24'
p3040
aS'174.127.96.0/23'
p3041
aS'174.127.98.0/23'
p3042
aS'174.127.100.0/23'
p3043
aS'174.127.102.0/23'
p3044
aS'174.133.116.0/22'
p3045
aS'177.136.8.0/22'
p3046
aS'181.119.160.0/20'
p3047
aS'181.224.149.0/24'
p3048
aS'181.224.150.0/24'
p3049
aS'181.224.151.0/24'
p3050
aS'181.224.156.0/24'
p3051
aS'181.224.157.0/24'
p3052
aS'181.224.158.0/24'
p3053
aS'181.224.159.0/24'
p3054
aS'184.172.0.0/18'
p3055
aS'184.172.96.0/19'
p3056
aS'184.172.128.0/18'
p3057
aS'184.172.192.0/18'
p3058
aS'184.173.0.0/18'
p3059
aS'184.173.64.0/18'
p3060
aS'184.173.128.0/18'
p3061
aS'184.173.192.0/18'
p3062
aS'185.13.56.0/22'
p3063
aS'185.21.132.0/24'
p3064
aS'185.51.164.0/22'
p3065
aS'186.26.96.0/20'
p3066
aS'190.60.173.0/24'
p3067
aS'190.61.7.0/24'
p3068
aS'190.61.8.0/21'
p3069
aS'190.61.16.0/24'
p3070
aS'190.61.18.0/23'
p3071
aS'190.61.20.0/22'
p3072
aS'190.61.24.0/22'
p3073
aS'190.105.194.0/24'
p3074
aS'192.40.176.0/20'
p3075
aS'192.71.144.0/24'
p3076
aS'192.81.139.0/24'
p3077
aS'192.95.112.0/21'
p3078
aS'192.95.119.0/24'
p3079
aS'192.95.120.0/21'
p3080
aS'192.155.192.0/20'
p3081
aS'192.155.208.0/20'
p3082
aS'192.155.224.0/20'
p3083
aS'192.155.240.0/20'
p3084
aS'192.169.48.0/20'
p3085
aS'192.200.160.0/22'
p3086
aS'192.200.164.0/22'
p3087
aS'192.200.168.0/22'
p3088
aS'192.200.172.0/22'
p3089
aS'192.200.176.0/22'
p3090
aS'192.200.180.0/23'
p3091
aS'192.255.0.0/19'
p3092
aS'196.45.123.0/24'
p3093
aS'198.11.192.0/18'
p3094
aS'198.23.64.0/20'
p3095
aS'198.23.80.0/20'
p3096
aS'198.23.96.0/20'
p3097
aS'198.58.82.0/23'
p3098
aS'198.58.82.0/24'
p3099
aS'198.58.83.0/24'
p3100
aS'198.58.89.0/24'
p3101
aS'198.58.90.0/23'
p3102
aS'198.58.90.0/24'
p3103
aS'198.58.91.0/24'
p3104
aS'198.58.92.0/22'
p3105
aS'198.58.96.0/19'
p3106
aS'198.105.221.0/24'
p3107
aS'198.105.222.0/24'
p3108
aS'198.105.223.0/24'
p3109
aS'198.144.16.0/21'
p3110
aS'198.144.24.0/22'
p3111
aS'198.252.64.0/20'
p3112
aS'198.252.96.0/23'
p3113
aS'198.252.100.0/24'
p3114
aS'198.252.101.0/24'
p3115
aS'198.252.102.0/23'
p3116
aS'198.252.104.0/24'
p3117
aS'198.252.105.0/24'
p3118
aS'199.66.178.0/24'
p3119
aS'199.166.34.0/23'
p3120
aS'199.187.172.0/22'
p3121
aS'199.195.192.0/24'
p3122
aS'199.195.193.0/24'
p3123
aS'199.244.72.0/22'
p3124
aS'200.187.65.0/24'
p3125
aS'205.201.128.0/24'
p3126
aS'205.201.129.0/24'
p3127
aS'205.201.130.0/24'
p3128
aS'205.201.131.0/24'
p3129
aS'205.201.136.0/24'
p3130
aS'205.201.137.0/24'
p3131
aS'205.201.138.0/24'
p3132
aS'205.201.139.0/24'
p3133
aS'206.190.155.0/24'
p3134
aS'206.190.156.0/24'
p3135
aS'206.190.157.0/24'
p3136
aS'206.190.158.0/24'
p3137
aS'206.190.159.0/24'
p3138
aS'206.217.192.0/24'
p3139
aS'206.217.193.0/24'
p3140
aS'206.217.194.0/24'
p3141
aS'206.217.195.0/24'
p3142
aS'206.217.200.0/24'
p3143
aS'206.217.201.0/24'
p3144
aS'206.217.202.0/24'
p3145
aS'206.217.203.0/24'
p3146
aS'206.217.204.0/24'
p3147
aS'206.217.205.0/24'
p3148
aS'206.217.206.0/24'
p3149
aS'206.217.207.0/24'
p3150
aS'206.217.208.0/24'
p3151
aS'206.217.209.0/24'
p3152
aS'206.217.210.0/24'
p3153
aS'206.217.211.0/24'
p3154
aS'206.217.212.0/24'
p3155
aS'206.217.213.0/24'
p3156
aS'206.217.214.0/24'
p3157
aS'206.217.215.0/24'
p3158
aS'206.217.216.0/24'
p3159
aS'206.217.217.0/24'
p3160
aS'206.217.218.0/24'
p3161
aS'206.217.219.0/24'
p3162
aS'206.217.220.0/24'
p3163
aS'206.217.221.0/24'
p3164
aS'206.217.222.0/24'
p3165
aS'206.217.223.0/24'
p3166
aS'208.43.0.0/18'
p3167
aS'208.43.64.0/18'
p3168
aS'208.43.128.0/18'
p3169
aS'208.43.192.0/19'
p3170
aS'208.43.224.0/19'
p3171
aS'208.75.56.0/23'
p3172
aS'208.75.58.0/23'
p3173
aS'208.101.0.0/18'
p3174
aS'216.12.192.0/19'
p3175
aS'216.127.64.0/24'
p3176
aS'216.127.65.0/24'
p3177
aS'216.127.76.0/24'
p3178
aS'216.127.77.0/24'
p3179
aS'216.172.160.0/21'
p3180
aS'216.172.168.0/21'
p3181
aS'216.172.176.0/22'
p3182
aS'216.172.184.0/21'
p3183
aS'216.185.96.0/19'
p3184
aS'216.185.112.0/24'
p3185
aS'216.185.124.0/24'
p3186
aS'216.185.125.0/24'
p3187
aS'216.185.126.0/24'
p3188
aa.