(lp0
c__builtin__
set
p1
((lp2
I257
aI265
aI77
aI80
aI148
aI23
aI191
atp3
Rp4
ag1
((lp5
I12
aI194
aI52
aI234
atp6
Rp7
ag1
((lp8
I147
aI230
aI88
aI83
aI215
aI280
aI59
aI188
atp9
Rp10
ag1
((lp11
I224
aI68
aI14
aI207
aI145
aI211
aI152
aI251
atp12
Rp13
ag1
((lp14
I132
aI70
aI103
aI232
aI75
aI274
aI239
aI208
aI49
aI210
aI85
aI154
aI156
aI190
atp15
Rp16
ag1
((lp17
I264
aI184
aI221
aI93
aI95
atp18
Rp19
ag1
((lp20
I4
aI72
aI171
aI109
aI22
aI87
aI284
aI183
atp21
Rp22
ag1
((lp23
I143
aI55
atp24
Rp25
ag1
((lp26
I277
atp27
Rp28
ag1
((lp29
I32
aI96
aI227
aI45
aI111
aI178
aI276
aI253
atp30
Rp31
ag1
((lp32
I140
aI31
atp33
Rp34
ag1
((lp35
I6
atp36
Rp37
ag1
((lp38
I130
aI76
aI170
atp39
Rp40
ag1
((lp41
I24
aI16
aI53
atp42
Rp43
ag1
((lp44
I81
aI115
atp45
Rp46
ag1
((lp47
I219
aI189
aI141
atp48
Rp49
ag1
((lp50
tp51
Rp52
ag1
((lp53
I160
aI162
aI195
aI5
aI38
aI168
aI108
aI138
aI67
aI172
aI98
aI243
aI181
aI214
aI137
aI282
aI252
aI255
atp54
Rp55
ag1
((lp56
I226
aI107
aI165
aI104
aI233
aI42
aI139
aI269
aI174
aI175
aI25
aI249
aI229
atp57
Rp58
ag1
((lp59
I254
atp60
Rp61
ag1
((lp62
I209
aI102
aI117
aI246
atp63
Rp64
ag1
((lp65
I57
aI185
atp66
Rp67
ag1
((lp68
I225
aI259
aI260
aI200
aI41
aI44
aI212
aI187
aI86
aI56
aI180
aI122
aI63
aI29
aI223
atp69
Rp70
ag1
((lp71
I144
aI173
aI198
atp72
Rp73
ag1
((lp74
I100
aI62
atp75
Rp76
ag1
((lp77
I256
aI270
aI26
aI34
aI35
aI37
aI46
aI179
aI94
aI201
aI60
aI196
aI73
aI74
aI82
aI84
aI90
aI222
aI99
aI114
aI244
aI118
aI248
aI250
aI125
atp78
Rp79
ag1
((lp80
I241
atp81
Rp82
ag1
((lp83
I169
aI268
aI117
atp84
Rp85
ag1
((lp86
I2
aI66
aI19
aI150
aI155
aI28
atp87
Rp88
ag1
((lp89
I0
aI192
aI258
aI3
aI261
aI262
aI7
aI8
aI9
aI267
aI13
aI142
aI15
aI272
aI273
aI146
aI275
aI20
aI149
aI278
aI153
aI281
aI27
aI285
aI287
aI133
aI176
aI283
aI36
aI166
aI167
aI40
aI43
aI47
aI157
aI48
aI177
aI50
aI51
aI54
aI186
aI151
aI64
aI193
aI11
aI197
aI71
aI247
aI204
aI78
aI79
aI164
aI213
aI216
aI217
aI91
aI58
aI199
aI228
aI101
aI231
aI105
aI235
aI236
aI237
aI240
aI113
aI242
aI116
aI245
aI89
aI119
aI123
aI124
aI126
aI21
atp90
Rp91
ag1
((lp92
I136
aI97
aI121
atp93
Rp94
ag1
((lp95
I33
aI159
aI135
aI39
atp96
Rp97
ag1
((lp98
I65
aI127
aI61
aI17
atp99
Rp100
ag1
((lp101
I1
aI131
aI263
aI266
aI205
aI238
aI163
aI286
aI182
aI120
aI218
aI92
aI30
atp102
Rp103
ag1
((lp104
I128
aI203
atp105
Rp106
ag1
((lp107
I129
aI202
aI110
aI271
aI112
aI220
aI10
aI158
atp108
Rp109
a.(lp0
c__builtin__
set
p1
((lp2
I161
aI69
aI134
aI106
aI206
aI18
aI279
atp3
Rp4
a.